Certificate:
    Data:
        Version: 3 (0x2)
        Serial Number: 5245415 (0x5009e7)
    Signature Algorithm: sha256WithRSAEncryption
        Issuer: C=NL, ST=Noord-Holland, O=Diladele B.V., OU=Diladele B.V. Web Safety Licensing CA 5, CN=Diladele B.V. Web Safety Licensing CA 5/emailAddress=support@diladele.com
        Validity
            Not Before: Sep 19 09:26:47 2022 GMT
            Not After : Oct 18 09:26:47 2022 GMT
        Subject: C=NL, ST=Noord-Holland, O=Diladele B.V., OU=Sales, CN=License Key (5-trial-50-502750)/emailAddress=support@diladele.com
        Subject Public Key Info:
            Public Key Algorithm: rsaEncryption
                Public-Key: (2048 bit)
                Modulus:
                    00:d2:8a:a2:ed:a9:01:75:91:e7:7c:83:e7:87:a6:
                    a0:aa:19:d4:95:0a:03:6a:e9:77:72:65:aa:40:5e:
                    d8:ac:dc:8a:22:76:06:06:f4:2b:53:53:ff:28:fb:
                    a1:b3:bf:02:7e:25:54:c4:91:e2:c6:af:b7:20:08:
                    d2:7a:74:21:70:4f:ee:7a:2a:79:a3:d4:e1:ae:d4:
                    c5:3c:2e:5d:78:0f:61:c4:5b:07:2b:31:14:b9:19:
                    e8:08:89:cd:7e:80:55:d2:20:9c:8f:1f:1c:8c:a6:
                    43:c9:6f:d8:2d:b4:b1:2e:eb:dc:df:d6:aa:57:7d:
                    9d:c6:32:64:c4:55:be:3b:e6:5e:2b:17:4c:96:d0:
                    55:31:55:f0:1d:48:0b:2a:f7:b1:fd:0a:1f:7d:6b:
                    76:b6:ec:7e:91:4e:a5:d1:52:b0:f0:6f:d4:5b:af:
                    8e:52:c1:8a:d6:f9:16:c5:5b:de:3b:db:13:43:db:
                    b6:a6:ad:1c:55:c4:7f:e5:a9:ff:36:a2:1b:db:a4:
                    62:26:8d:5e:65:bf:8a:18:03:95:ec:e6:0d:d4:44:
                    b7:15:aa:d4:bc:5b:bc:81:c7:d4:65:41:a0:81:4b:
                    e0:95:97:78:97:6d:7f:28:5b:85:bd:c7:f9:d7:2d:
                    40:63:66:41:cd:e2:eb:dd:8a:a0:9a:e8:e0:10:97:
                    ed:0d
                Exponent: 65537 (0x10001)
        X509v3 extensions:
            X509v3 Basic Constraints: 
                CA:FALSE
            Netscape Comment: 
                OpenSSL Generated Certificate
            X509v3 Subject Key Identifier: 
                C8:1F:CC:9B:6E:ED:30:77:2D:C8:1B:41:40:98:01:CC:BE:06:9C:CB
            X509v3 Authority Key Identifier: 
                keyid:CB:DC:C7:A1:90:C5:A4:2E:51:CB:2D:5E:DA:81:20:CB:F7:2B:1B:66

    Signature Algorithm: sha256WithRSAEncryption
         16:a5:d5:41:67:7f:64:9f:80:89:75:2e:bf:33:d1:81:15:23:
         b1:9b:e6:f3:1e:fd:17:e1:da:cd:28:bd:31:32:b0:95:a2:e6:
         6c:38:91:e0:2f:c0:fa:45:40:90:cd:8e:03:98:86:32:b6:11:
         e5:a4:a5:13:d0:ca:1a:18:7a:de:97:ca:b4:5d:8e:92:b8:5d:
         fe:93:8d:6d:7d:51:fe:38:f0:d0:f5:a7:2b:6c:74:d3:a0:5d:
         d5:64:d4:eb:e8:13:76:4c:a1:3a:1c:dc:c0:eb:12:a0:8f:b6:
         fd:8e:9d:c3:7e:7f:39:34:d9:59:4d:ed:97:c3:d5:18:86:dc:
         0e:00:87:38:53:52:79:45:6c:58:84:35:77:56:0f:2e:e1:59:
         d3:3c:7e:21:f3:32:5c:8c:90:79:88:2d:1c:67:d4:83:f4:54:
         47:d2:4d:a2:cb:fa:6d:45:e5:16:8a:ac:32:d3:ef:94:51:4b:
         f8:96:3f:1b:d6:a9:df:e4:a6:f0:b1:cb:83:12:95:b8:f0:9e:
         5e:2d:52:f2:da:6e:97:f1:0e:bc:7b:e0:51:7b:86:3f:30:87:
         5f:6f:e5:7f:74:4c:6d:ef:03:42:93:16:e6:f0:15:7f:df:3a:
         c6:41:00:83:81:4b:ed:e1:74:b8:e7:cc:4a:86:1e:0c:9c:a4:
         09:f6:7e:2c
-----BEGIN CERTIFICATE-----
MIIEXDCCA0SgAwIBAgIDUAnnMA0GCSqGSIb3DQEBCwUAMIHGMQswCQYDVQQGEwJO
TDEWMBQGA1UECAwNTm9vcmQtSG9sbGFuZDEWMBQGA1UECgwNRGlsYWRlbGUgQi5W
LjEwMC4GA1UECwwnRGlsYWRlbGUgQi5WLiBXZWIgU2FmZXR5IExpY2Vuc2luZyBD
QSA1MTAwLgYDVQQDDCdEaWxhZGVsZSBCLlYuIFdlYiBTYWZldHkgTGljZW5zaW5n
IENBIDUxIzAhBgkqhkiG9w0BCQEWFHN1cHBvcnRAZGlsYWRlbGUuY29tMB4XDTIy
MDkxOTA5MjY0N1oXDTIyMTAxODA5MjY0N1owgZwxCzAJBgNVBAYTAk5MMRYwFAYD
VQQIDA1Ob29yZC1Ib2xsYW5kMRYwFAYDVQQKDA1EaWxhZGVsZSBCLlYuMQ4wDAYD
VQQLDAVTYWxlczEoMCYGA1UEAwwfTGljZW5zZSBLZXkgKDUtdHJpYWwtNTAtNTAy
NzUwKTEjMCEGCSqGSIb3DQEJARYUc3VwcG9ydEBkaWxhZGVsZS5jb20wggEiMA0G
CSqGSIb3DQEBAQUAA4IBDwAwggEKAoIBAQDSiqLtqQF1ked8g+eHpqCqGdSVCgNq
6XdyZapAXtis3IoidgYG9CtTU/8o+6GzvwJ+JVTEkeLGr7cgCNJ6dCFwT+56Knmj
1OGu1MU8Ll14D2HEWwcrMRS5GegIic1+gFXSIJyPHxyMpkPJb9gttLEu69zf1qpX
fZ3GMmTEVb475l4rF0yW0FUxVfAdSAsq97H9Ch99a3a27H6RTqXRUrDwb9Rbr45S
wYrW+RbFW9472xND27amrRxVxH/lqf82ohvbpGImjV5lv4oYA5Xs5g3URLcVqtS8
W7yBx9RlQaCBS+CVl3iXbX8oW4W9x/nXLUBjZkHN4uvdiqCa6OAQl+0NAgMBAAGj
ezB5MAkGA1UdEwQCMAAwLAYJYIZIAYb4QgENBB8WHU9wZW5TU0wgR2VuZXJhdGVk
IENlcnRpZmljYXRlMB0GA1UdDgQWBBTIH8ybbu0wdy3IG0FAmAHMvgacyzAfBgNV
HSMEGDAWgBTL3MehkMWkLlHLLV7agSDL9ysbZjANBgkqhkiG9w0BAQsFAAOCAQEA
FqXVQWd/ZJ+AiXUuvzPRgRUjsZvm8x79F+HazSi9MTKwlaLmbDiR4C/A+kVAkM2O
A5iGMrYR5aSlE9DKGhh63pfKtF2Okrhd/pONbX1R/jjw0PWnK2x006Bd1WTU6+gT
dkyhOhzcwOsSoI+2/Y6dw35/OTTZWU3tl8PVGIbcDgCHOFNSeUVsWIQ1d1YPLuFZ
0zx+IfMyXIyQeYgtHGfUg/RUR9JNosv6bUXlFoqsMtPvlFFL+JY/G9ap3+Sm8LHL
gxKVuPCeXi1S8tpul/EOvHvgUXuGPzCHX2/lf3RMbe8DQpMW5vAVf986xkEAg4FL
7eF0uOfMSoYeDJykCfZ+LA==
-----END CERTIFICATE-----
