Certificate:
    Data:
        Version: 3 (0x2)
        Serial Number: 5243457 (0x500241)
    Signature Algorithm: sha256WithRSAEncryption
        Issuer: C=NL, ST=Noord-Holland, O=Diladele B.V., OU=Diladele B.V. Web Safety Licensing CA 5, CN=Diladele B.V. Web Safety Licensing CA 5/emailAddress=support@diladele.com
        Validity
            Not Before: Nov  9 09:22:59 2018 GMT
            Not After : Dec 15 09:22:59 2018 GMT
        Subject: C=NL, ST=Noord-Holland, O=Diladele B.V., OU=Sales, CN=License Key (5-trial-500-500576)/emailAddress=support@diladele.com
        Subject Public Key Info:
            Public Key Algorithm: rsaEncryption
                Public-Key: (2048 bit)
                Modulus:
                    00:9d:03:f5:db:5d:c6:62:53:6f:35:58:d4:4b:02:
                    ee:47:45:f2:23:35:c4:f1:32:7d:8d:d0:e8:56:34:
                    fb:3b:a2:da:86:e6:b5:c7:88:22:97:7d:ee:ba:84:
                    ba:4f:5b:9e:ea:55:df:09:bf:79:82:4d:49:21:6f:
                    cc:64:d4:66:3a:75:2c:c1:98:56:4b:09:1a:63:28:
                    1b:a2:2b:49:1b:df:f8:79:f8:f6:f3:46:b2:83:ac:
                    85:e8:df:b8:09:94:9d:0d:21:d5:93:69:dc:c2:a9:
                    ea:5f:8d:52:15:f6:16:a1:41:b7:76:86:2b:40:f4:
                    09:40:ee:d2:da:04:6e:32:26:8a:85:6b:ea:58:c1:
                    d5:dd:9c:bf:de:b3:24:33:a5:30:fc:fb:79:9c:fe:
                    3a:57:44:d1:81:01:3b:92:d6:b4:0d:a3:c3:aa:1a:
                    75:7f:0c:13:5f:23:3c:5c:da:dc:a1:ad:10:70:d0:
                    f9:1c:52:b9:fa:56:db:02:76:d8:09:ea:32:ae:4f:
                    67:8a:f3:f6:5a:31:ef:81:e1:58:06:b6:9d:4c:90:
                    c2:21:22:4f:3c:04:2f:56:b9:f3:87:10:4c:b6:2b:
                    0a:d7:06:10:f2:30:ff:2f:40:9b:30:0b:91:40:99:
                    30:f4:eb:b9:af:dd:b5:98:ea:66:30:cf:11:0e:ac:
                    8d:7b
                Exponent: 65537 (0x10001)
        X509v3 extensions:
            X509v3 Basic Constraints: 
                CA:FALSE
            Netscape Comment: 
                OpenSSL Generated Certificate
            X509v3 Subject Key Identifier: 
                91:03:9E:3A:77:ED:57:F1:85:EC:30:80:46:BD:FF:B4:43:00:E8:9C
            X509v3 Authority Key Identifier: 
                keyid:CB:DC:C7:A1:90:C5:A4:2E:51:CB:2D:5E:DA:81:20:CB:F7:2B:1B:66

    Signature Algorithm: sha256WithRSAEncryption
         3c:f9:6e:7d:08:8b:9c:d6:f5:a0:22:e7:6a:41:2b:be:28:e9:
         81:4e:3e:c5:80:14:22:ae:1f:0a:40:03:9b:26:aa:d4:2a:18:
         63:ef:04:eb:f6:6c:ce:39:fd:6a:7d:18:81:ec:05:ea:da:f2:
         8c:d1:8f:4d:da:d6:39:32:67:1b:98:eb:f3:1b:c8:37:78:b2:
         87:d2:78:5f:f5:10:11:ec:d7:b6:0b:bc:c5:f5:65:2b:a7:41:
         fd:d4:ad:d3:fc:7f:c8:f5:be:f2:ce:a3:c1:e1:f6:10:9e:f0:
         e3:d9:9d:da:4c:3d:d5:32:78:01:8b:7a:5c:f5:d1:4f:d7:65:
         87:a8:e7:35:18:06:fc:a6:be:60:ca:5b:df:1f:75:42:0f:c0:
         2a:5e:1d:5a:13:31:ac:47:9b:72:c9:bf:25:db:53:68:74:bd:
         a8:e6:94:31:f9:3a:77:78:b8:f1:3a:01:1a:dd:bb:bd:8f:d3:
         03:90:c8:ed:75:aa:e4:98:cf:c4:5b:59:84:0d:9c:3c:d4:2e:
         de:b5:ff:c7:ea:64:10:b9:26:3d:2c:e7:73:6c:4f:c1:80:c6:
         af:f3:8c:95:55:2c:49:4b:9f:b3:2f:14:56:56:dc:4c:b7:50:
         9a:7f:e7:52:d5:e6:48:6d:a4:03:f4:5c:b3:7e:ff:95:94:54:
         ec:a7:31:6b
-----BEGIN CERTIFICATE-----
MIIEXTCCA0WgAwIBAgIDUAJBMA0GCSqGSIb3DQEBCwUAMIHGMQswCQYDVQQGEwJO
TDEWMBQGA1UECAwNTm9vcmQtSG9sbGFuZDEWMBQGA1UECgwNRGlsYWRlbGUgQi5W
LjEwMC4GA1UECwwnRGlsYWRlbGUgQi5WLiBXZWIgU2FmZXR5IExpY2Vuc2luZyBD
QSA1MTAwLgYDVQQDDCdEaWxhZGVsZSBCLlYuIFdlYiBTYWZldHkgTGljZW5zaW5n
IENBIDUxIzAhBgkqhkiG9w0BCQEWFHN1cHBvcnRAZGlsYWRlbGUuY29tMB4XDTE4
MTEwOTA5MjI1OVoXDTE4MTIxNTA5MjI1OVowgZ0xCzAJBgNVBAYTAk5MMRYwFAYD
VQQIDA1Ob29yZC1Ib2xsYW5kMRYwFAYDVQQKDA1EaWxhZGVsZSBCLlYuMQ4wDAYD
VQQLDAVTYWxlczEpMCcGA1UEAwwgTGljZW5zZSBLZXkgKDUtdHJpYWwtNTAwLTUw
MDU3NikxIzAhBgkqhkiG9w0BCQEWFHN1cHBvcnRAZGlsYWRlbGUuY29tMIIBIjAN
BgkqhkiG9w0BAQEFAAOCAQ8AMIIBCgKCAQEAnQP1213GYlNvNVjUSwLuR0XyIzXE
8TJ9jdDoVjT7O6Lahua1x4gil33uuoS6T1ue6lXfCb95gk1JIW/MZNRmOnUswZhW
SwkaYygboitJG9/4efj280ayg6yF6N+4CZSdDSHVk2ncwqnqX41SFfYWoUG3doYr
QPQJQO7S2gRuMiaKhWvqWMHV3Zy/3rMkM6Uw/Pt5nP46V0TRgQE7kta0DaPDqhp1
fwwTXyM8XNrcoa0QcND5HFK5+lbbAnbYCeoyrk9nivP2WjHvgeFYBradTJDCISJP
PAQvVrnzhxBMtisK1wYQ8jD/L0CbMAuRQJkw9Ou5r921mOpmMM8RDqyNewIDAQAB
o3sweTAJBgNVHRMEAjAAMCwGCWCGSAGG+EIBDQQfFh1PcGVuU1NMIEdlbmVyYXRl
ZCBDZXJ0aWZpY2F0ZTAdBgNVHQ4EFgQUkQOeOnftV/GF7DCARr3/tEMA6JwwHwYD
VR0jBBgwFoAUy9zHoZDFpC5Ryy1e2oEgy/crG2YwDQYJKoZIhvcNAQELBQADggEB
ADz5bn0Ii5zW9aAi52pBK74o6YFOPsWAFCKuHwpAA5smqtQqGGPvBOv2bM45/Wp9
GIHsBera8ozRj03a1jkyZxuY6/MbyDd4sofSeF/1EBHs17YLvMX1ZSunQf3UrdP8
f8j1vvLOo8Hh9hCe8OPZndpMPdUyeAGLelz10U/XZYeo5zUYBvymvmDKW98fdUIP
wCpeHVoTMaxHm3LJvyXbU2h0vajmlDH5Ond4uPE6ARrdu72P0wOQyO11quSYz8Rb
WYQNnDzULt61/8fqZBC5Jj0s53NsT8GAxq/zjJVVLElLn7MvFFZW3Ey3UJp/51LV
5khtpAP0XLN+/5WUVOynMWs=
-----END CERTIFICATE-----
