Certificate:
    Data:
        Version: 3 (0x2)
        Serial Number: 5243031 (0x500097)
    Signature Algorithm: sha256WithRSAEncryption
        Issuer: C=NL, ST=Noord-Holland, O=Diladele B.V., OU=Diladele B.V. Web Safety Licensing CA 5, CN=Diladele B.V. Web Safety Licensing CA 5/emailAddress=support@diladele.com
        Validity
            Not Before: Mar  5 10:19:14 2018 GMT
            Not After : Apr  3 10:19:14 2018 GMT
        Subject: C=NL, ST=Noord-Holland, O=Diladele B.V., OU=Sales, CN=License Key (5-trial-50-500151)/emailAddress=support@diladele.com
        Subject Public Key Info:
            Public Key Algorithm: rsaEncryption
                Public-Key: (2048 bit)
                Modulus:
                    00:9b:2b:6c:65:b4:cf:01:91:2f:ff:43:bf:3f:9a:
                    86:cc:ff:2d:e2:1c:b1:e6:32:88:a1:4a:72:7d:76:
                    fc:c4:ba:d6:31:9d:14:29:c2:cc:54:e6:82:d4:a4:
                    ce:d9:2c:43:7c:92:bb:ea:16:cf:7f:b1:eb:81:16:
                    7f:33:9e:36:51:93:33:fa:b2:69:c6:3d:22:b8:27:
                    dd:4d:22:a8:fb:d2:ea:74:65:51:15:51:a3:6d:c9:
                    ca:90:64:2a:e6:57:55:5a:ee:13:f6:c9:3d:25:7b:
                    ce:ae:6e:10:b2:08:9b:ad:e2:19:56:81:cc:13:c1:
                    2d:df:8f:d5:b5:53:0e:ac:c1:50:48:18:1c:9a:1d:
                    c7:6f:56:d1:2c:d4:cb:15:6d:80:19:ed:9e:ea:f0:
                    bf:e3:24:42:27:f5:ba:51:e5:02:e8:5e:43:a4:2d:
                    12:2d:70:0e:9c:c3:5a:8f:9b:3f:ca:c6:c5:98:37:
                    a5:3c:ee:a4:b9:c0:c8:ce:08:8b:38:eb:eb:c0:52:
                    87:24:c6:5d:a0:d9:9e:ae:69:33:81:0e:c7:d4:00:
                    a5:f7:c2:10:d9:6a:c3:f4:97:6b:59:9a:78:70:ee:
                    a7:ce:f5:3f:1f:b8:61:ab:24:ae:dd:b5:8a:2b:58:
                    aa:26:f8:4a:8f:4d:f4:da:c9:a9:2a:91:30:1e:3e:
                    8e:c7
                Exponent: 65537 (0x10001)
        X509v3 extensions:
            X509v3 Basic Constraints: 
                CA:FALSE
            Netscape Comment: 
                OpenSSL Generated Certificate
            X509v3 Subject Key Identifier: 
                14:08:EB:0C:18:CB:3E:F2:C3:34:72:8F:5A:00:2A:B4:98:15:8A:E9
            X509v3 Authority Key Identifier: 
                keyid:CB:DC:C7:A1:90:C5:A4:2E:51:CB:2D:5E:DA:81:20:CB:F7:2B:1B:66

    Signature Algorithm: sha256WithRSAEncryption
         17:69:d8:84:f7:b9:ec:ce:74:1b:20:a4:a9:6b:d7:10:62:23:
         04:9f:71:31:cf:a6:5f:27:2c:cb:d3:b7:d9:a7:df:62:be:e1:
         40:26:7d:0c:69:ad:d8:f6:a0:40:de:0a:08:d9:74:7c:7c:0a:
         8e:f8:57:00:78:78:da:76:a4:ae:42:0a:d3:53:b4:7e:8a:c7:
         e3:03:11:1c:14:dc:91:2b:cf:b2:2a:a0:ab:67:c2:8d:f3:3e:
         ce:ea:c0:01:1d:52:b8:e3:63:60:e9:1e:18:b4:dd:19:f4:14:
         d6:d9:f3:85:3d:4a:4b:53:ab:85:f6:ef:cb:95:15:5c:e9:56:
         87:d4:8e:8f:21:03:a0:b6:4c:d8:24:04:41:f6:c4:c5:6d:39:
         5c:34:3c:8c:3c:0f:ad:9b:58:02:95:00:b4:8a:6d:ea:9d:bc:
         3a:59:b6:8c:17:b0:ca:ca:ce:c1:81:39:00:cf:f9:1a:87:7a:
         86:8d:37:bf:bd:74:31:7b:e3:20:b4:70:cc:03:55:f4:78:23:
         8d:61:99:d6:12:15:d7:7c:1e:1e:39:d4:74:15:8a:2f:b6:a4:
         a0:72:ad:ef:fa:d8:41:90:0b:c5:4f:ff:6c:e5:b2:f4:d9:99:
         ad:c0:f6:73:d2:b5:09:04:ca:83:42:49:12:3a:ff:0f:8e:d5:
         16:e4:3c:49
-----BEGIN CERTIFICATE-----
MIIEXDCCA0SgAwIBAgIDUACXMA0GCSqGSIb3DQEBCwUAMIHGMQswCQYDVQQGEwJO
TDEWMBQGA1UECAwNTm9vcmQtSG9sbGFuZDEWMBQGA1UECgwNRGlsYWRlbGUgQi5W
LjEwMC4GA1UECwwnRGlsYWRlbGUgQi5WLiBXZWIgU2FmZXR5IExpY2Vuc2luZyBD
QSA1MTAwLgYDVQQDDCdEaWxhZGVsZSBCLlYuIFdlYiBTYWZldHkgTGljZW5zaW5n
IENBIDUxIzAhBgkqhkiG9w0BCQEWFHN1cHBvcnRAZGlsYWRlbGUuY29tMB4XDTE4
MDMwNTEwMTkxNFoXDTE4MDQwMzEwMTkxNFowgZwxCzAJBgNVBAYTAk5MMRYwFAYD
VQQIDA1Ob29yZC1Ib2xsYW5kMRYwFAYDVQQKDA1EaWxhZGVsZSBCLlYuMQ4wDAYD
VQQLDAVTYWxlczEoMCYGA1UEAwwfTGljZW5zZSBLZXkgKDUtdHJpYWwtNTAtNTAw
MTUxKTEjMCEGCSqGSIb3DQEJARYUc3VwcG9ydEBkaWxhZGVsZS5jb20wggEiMA0G
CSqGSIb3DQEBAQUAA4IBDwAwggEKAoIBAQCbK2xltM8BkS//Q78/mobM/y3iHLHm
MoihSnJ9dvzEutYxnRQpwsxU5oLUpM7ZLEN8krvqFs9/seuBFn8znjZRkzP6smnG
PSK4J91NIqj70up0ZVEVUaNtycqQZCrmV1Va7hP2yT0le86ubhCyCJut4hlWgcwT
wS3fj9W1Uw6swVBIGByaHcdvVtEs1MsVbYAZ7Z7q8L/jJEIn9bpR5QLoXkOkLRIt
cA6cw1qPmz/KxsWYN6U87qS5wMjOCIs46+vAUockxl2g2Z6uaTOBDsfUAKX3whDZ
asP0l2tZmnhw7qfO9T8fuGGrJK7dtYorWKom+EqPTfTayakqkTAePo7HAgMBAAGj
ezB5MAkGA1UdEwQCMAAwLAYJYIZIAYb4QgENBB8WHU9wZW5TU0wgR2VuZXJhdGVk
IENlcnRpZmljYXRlMB0GA1UdDgQWBBQUCOsMGMs+8sM0co9aACq0mBWK6TAfBgNV
HSMEGDAWgBTL3MehkMWkLlHLLV7agSDL9ysbZjANBgkqhkiG9w0BAQsFAAOCAQEA
F2nYhPe57M50GyCkqWvXEGIjBJ9xMc+mXycsy9O32affYr7hQCZ9DGmt2PagQN4K
CNl0fHwKjvhXAHh42nakrkIK01O0forH4wMRHBTckSvPsiqgq2fCjfM+zurAAR1S
uONjYOkeGLTdGfQU1tnzhT1KS1Orhfbvy5UVXOlWh9SOjyEDoLZM2CQEQfbExW05
XDQ8jDwPrZtYApUAtIpt6p28Olm2jBewysrOwYE5AM/5God6ho03v710MXvjILRw
zANV9HgjjWGZ1hIV13weHjnUdBWKL7akoHKt7/rYQZALxU//bOWy9NmZrcD2c9K1
CQTKg0JJEjr/D47VFuQ8SQ==
-----END CERTIFICATE-----
