Certificate:
    Data:
        Version: 3 (0x2)
        Serial Number: 5245059 (0x500883)
    Signature Algorithm: sha256WithRSAEncryption
        Issuer: C=NL, ST=Noord-Holland, O=Diladele B.V., OU=Diladele B.V. Web Safety Licensing CA 5, CN=Diladele B.V. Web Safety Licensing CA 5/emailAddress=support@diladele.com
        Validity
            Not Before: Nov  6 08:05:04 2021 GMT
            Not After : Dec  6 08:05:04 2021 GMT
        Subject: C=NL, ST=Noord-Holland, O=Diladele B.V., OU=Sales, CN=License Key (5-trial-100-502191)/emailAddress=support@diladele.com
        Subject Public Key Info:
            Public Key Algorithm: rsaEncryption
                Public-Key: (2048 bit)
                Modulus:
                    00:c2:3f:1a:8c:f4:d9:60:06:e7:5c:50:2f:ab:ca:
                    60:d6:fe:5f:39:2c:78:fe:49:b5:62:b3:b0:1a:a4:
                    a8:58:90:1c:8c:1b:9e:0b:95:90:ac:c6:41:81:eb:
                    00:e3:0f:9a:b9:2c:01:6c:f5:bf:36:6b:f9:69:2f:
                    77:a9:b4:dd:fc:e5:c0:24:6d:a2:ba:54:ff:63:1e:
                    5c:1c:e9:dc:aa:7c:9d:c7:f2:e7:99:90:2d:13:bb:
                    99:54:45:14:bd:c9:78:5f:d8:e1:ed:15:3b:38:4a:
                    27:ea:7b:44:7d:1c:32:c0:7b:be:a4:cf:81:c9:f8:
                    04:93:ef:93:08:d6:3c:65:f7:60:e1:f3:53:ae:94:
                    b4:2f:df:07:2b:2d:e7:7b:ba:f2:2a:db:bd:9c:99:
                    31:f3:26:4b:81:85:2c:6a:56:0e:b9:aa:fa:6c:fe:
                    74:09:a1:44:36:cb:13:4f:7e:56:0a:05:2c:e7:1c:
                    5b:b3:1c:6d:58:d0:12:71:d1:77:fb:01:fc:0b:68:
                    91:24:3e:60:14:40:c4:7e:00:15:d9:9e:18:ca:8a:
                    f2:97:1a:58:71:1a:24:0e:d1:b7:95:27:86:05:db:
                    97:c8:ab:92:c4:c9:0a:46:b2:d6:f5:08:71:0c:9f:
                    46:bf:cd:46:8a:44:50:7f:8b:60:df:09:6e:23:07:
                    7d:ef
                Exponent: 65537 (0x10001)
        X509v3 extensions:
            X509v3 Basic Constraints: 
                CA:FALSE
            Netscape Comment: 
                OpenSSL Generated Certificate
            X509v3 Subject Key Identifier: 
                5B:71:36:D8:A5:5A:23:9A:DC:8C:BB:19:81:31:F2:6B:2D:0D:63:46
            X509v3 Authority Key Identifier: 
                keyid:CB:DC:C7:A1:90:C5:A4:2E:51:CB:2D:5E:DA:81:20:CB:F7:2B:1B:66

    Signature Algorithm: sha256WithRSAEncryption
         02:57:f7:6e:f0:a9:b8:09:ce:d7:6f:a2:45:39:c7:32:56:5a:
         b9:04:72:a9:27:35:71:5d:0c:5c:69:41:6d:2e:a2:b1:aa:29:
         2c:a3:81:66:84:f1:74:d5:0c:78:d7:74:be:a1:74:90:9b:00:
         c4:f8:c0:cc:c8:58:27:dc:a6:05:a2:f7:5d:52:17:d9:37:24:
         31:8a:8d:7e:bb:06:b2:7b:1a:b7:fe:74:82:4e:8b:09:a7:ab:
         c6:c5:d0:b5:d5:9f:e2:9a:e1:d4:41:94:cf:72:dc:a4:95:30:
         cd:5e:4a:08:2f:ae:71:1b:23:d3:ee:51:a4:2b:92:58:1c:4d:
         9b:b2:b7:f0:e6:b2:22:ab:48:41:1b:93:8f:51:b2:0e:3e:ea:
         4e:1d:46:54:1d:47:41:c8:ed:28:7b:86:ce:60:01:b8:5a:2e:
         5d:08:eb:4d:b3:d0:43:7a:38:57:da:60:08:7a:2b:6e:48:b5:
         85:d7:d6:8e:55:a8:7e:0e:ff:3a:e7:18:2d:be:c4:69:97:75:
         db:3d:6c:d6:5f:41:8e:3b:43:d5:69:29:fa:5e:8e:3e:12:a8:
         ef:f1:e5:eb:2c:d9:10:cf:81:5f:da:6a:3f:f2:0a:4b:4a:2d:
         6a:9a:66:f6:85:4a:2d:c2:5d:0f:b7:e4:ea:49:3a:79:c0:5c:
         48:b5:f0:5c
-----BEGIN CERTIFICATE-----
MIIEXTCCA0WgAwIBAgIDUAiDMA0GCSqGSIb3DQEBCwUAMIHGMQswCQYDVQQGEwJO
TDEWMBQGA1UECAwNTm9vcmQtSG9sbGFuZDEWMBQGA1UECgwNRGlsYWRlbGUgQi5W
LjEwMC4GA1UECwwnRGlsYWRlbGUgQi5WLiBXZWIgU2FmZXR5IExpY2Vuc2luZyBD
QSA1MTAwLgYDVQQDDCdEaWxhZGVsZSBCLlYuIFdlYiBTYWZldHkgTGljZW5zaW5n
IENBIDUxIzAhBgkqhkiG9w0BCQEWFHN1cHBvcnRAZGlsYWRlbGUuY29tMB4XDTIx
MTEwNjA4MDUwNFoXDTIxMTIwNjA4MDUwNFowgZ0xCzAJBgNVBAYTAk5MMRYwFAYD
VQQIDA1Ob29yZC1Ib2xsYW5kMRYwFAYDVQQKDA1EaWxhZGVsZSBCLlYuMQ4wDAYD
VQQLDAVTYWxlczEpMCcGA1UEAwwgTGljZW5zZSBLZXkgKDUtdHJpYWwtMTAwLTUw
MjE5MSkxIzAhBgkqhkiG9w0BCQEWFHN1cHBvcnRAZGlsYWRlbGUuY29tMIIBIjAN
BgkqhkiG9w0BAQEFAAOCAQ8AMIIBCgKCAQEAwj8ajPTZYAbnXFAvq8pg1v5fOSx4
/km1YrOwGqSoWJAcjBueC5WQrMZBgesA4w+auSwBbPW/Nmv5aS93qbTd/OXAJG2i
ulT/Yx5cHOncqnydx/LnmZAtE7uZVEUUvcl4X9jh7RU7OEon6ntEfRwywHu+pM+B
yfgEk++TCNY8Zfdg4fNTrpS0L98HKy3ne7ryKtu9nJkx8yZLgYUsalYOuar6bP50
CaFENssTT35WCgUs5xxbsxxtWNAScdF3+wH8C2iRJD5gFEDEfgAV2Z4YyorylxpY
cRokDtG3lSeGBduXyKuSxMkKRrLW9QhxDJ9Gv81GikRQf4tg3wluIwd97wIDAQAB
o3sweTAJBgNVHRMEAjAAMCwGCWCGSAGG+EIBDQQfFh1PcGVuU1NMIEdlbmVyYXRl
ZCBDZXJ0aWZpY2F0ZTAdBgNVHQ4EFgQUW3E22KVaI5rcjLsZgTHyay0NY0YwHwYD
VR0jBBgwFoAUy9zHoZDFpC5Ryy1e2oEgy/crG2YwDQYJKoZIhvcNAQELBQADggEB
AAJX927wqbgJztdvokU5xzJWWrkEcqknNXFdDFxpQW0uorGqKSyjgWaE8XTVDHjX
dL6hdJCbAMT4wMzIWCfcpgWi911SF9k3JDGKjX67BrJ7Grf+dIJOiwmnq8bF0LXV
n+Ka4dRBlM9y3KSVMM1eSggvrnEbI9PuUaQrklgcTZuyt/DmsiKrSEEbk49Rsg4+
6k4dRlQdR0HI7Sh7hs5gAbhaLl0I602z0EN6OFfaYAh6K25ItYXX1o5VqH4O/zrn
GC2+xGmXdds9bNZfQY47Q9VpKfpejj4SqO/x5ess2RDPgV/aaj/yCktKLWqaZvaF
Si3CXQ+35OpJOnnAXEi18Fw=
-----END CERTIFICATE-----
