Certificate:
    Data:
        Version: 3 (0x2)
        Serial Number: 4194793 (0x4001e9)
    Signature Algorithm: sha256WithRSAEncryption
        Issuer: C=NL, ST=Noord-Holland, O=Diladele B.V., OU=Diladele B.V. Web Safety Licensing CA, CN=Diladele B.V. Web Safety Licensing CA/emailAddress=support@diladele.com
        Validity
            Not Before: Aug 26 17:19:11 2016 GMT
            Not After : Oct 10 17:19:11 2016 GMT
        Subject: C=NL, ST=Noord-Holland, O=Diladele B.V., OU=Sales, CN=License Key (4-trial-1000-400491)/emailAddress=support@diladele.com
        Subject Public Key Info:
            Public Key Algorithm: rsaEncryption
                Public-Key: (2048 bit)
                Modulus:
                    00:ca:fd:68:b3:94:d7:35:6d:ee:6f:0a:a3:c2:76:
                    30:28:21:a2:22:80:5a:bd:af:85:7f:71:30:35:83:
                    a8:69:6b:7a:ba:68:02:8f:62:9d:d4:b3:70:91:ab:
                    d5:09:b4:e3:ef:dd:c4:c7:16:1f:7a:93:6a:83:f1:
                    5e:f1:de:be:48:b2:bd:4f:e4:99:43:e4:0b:e4:6d:
                    83:43:d0:69:5a:2b:b8:98:85:e1:21:42:ab:dd:63:
                    a7:d3:bf:9d:2a:0b:7f:16:fe:8f:f9:69:de:d6:44:
                    9c:83:fe:08:86:47:af:4d:c5:06:71:ff:33:50:a3:
                    d4:15:cb:11:90:33:ad:5e:14:ca:6e:bb:07:f0:10:
                    af:c4:ab:28:3a:ae:1d:23:71:f1:06:01:e5:10:fb:
                    14:7f:38:6e:d3:94:15:eb:5f:33:ab:4b:42:40:82:
                    2d:47:b4:13:45:43:31:98:a3:9b:83:eb:2c:f5:a0:
                    09:f6:a4:a1:45:4c:07:c9:ae:54:1e:6c:15:e2:25:
                    84:8f:b6:c1:95:cd:e8:06:07:60:24:f9:16:f1:cb:
                    bd:75:56:a1:ad:72:f4:98:1e:fa:77:e5:00:71:95:
                    ea:8e:64:27:4c:b5:cc:56:62:b7:79:54:bb:2f:5c:
                    13:71:a3:d1:58:e8:37:2e:90:8c:a2:7d:af:28:3b:
                    92:8b
                Exponent: 65537 (0x10001)
        X509v3 extensions:
            X509v3 Basic Constraints: 
                CA:FALSE
            Netscape Comment: 
                OpenSSL Generated Certificate
            X509v3 Subject Key Identifier: 
                8A:01:CB:91:EE:6B:4C:34:45:63:B2:02:DD:2F:63:07:4B:62:E5:A9
            X509v3 Authority Key Identifier: 
                keyid:9B:27:63:27:D7:34:1A:30:36:C9:37:FE:67:33:91:B1:12:D4:2A:70

    Signature Algorithm: sha256WithRSAEncryption
         2c:cf:6f:21:b5:29:90:bf:3a:76:bf:57:cf:9e:57:03:40:85:
         a9:04:36:67:76:f2:89:4a:95:c9:c8:c0:67:de:e0:20:b9:cf:
         c3:20:42:64:8e:fd:79:2c:81:e7:93:3e:3e:e3:3d:90:c2:ac:
         91:80:c9:fe:cb:6b:cd:7f:d9:46:c5:04:ac:06:98:93:03:68:
         9e:f9:b7:f5:8d:7f:2c:09:01:f6:3c:5f:da:59:be:69:6a:6e:
         d1:4e:f5:15:3f:d7:5b:8c:95:af:fa:16:52:60:6e:b3:e3:65:
         aa:d1:6e:ce:8c:3c:13:f2:63:48:c5:fb:1e:dd:3a:f0:3e:6c:
         39:8a:c9:d6:23:1e:d9:8c:a3:a7:32:a2:69:87:94:b3:c5:d4:
         ff:b9:e1:0d:9f:a5:fa:89:18:05:34:0b:44:25:6b:17:45:e8:
         6e:08:eb:5e:8e:fa:d2:07:a8:fb:00:93:5c:61:84:f3:b0:b4:
         76:b3:19:ad:6a:5d:06:0a:17:fd:cc:ca:c5:e3:dc:4a:ef:4b:
         63:70:9b:2c:e7:31:c2:b6:79:37:76:6e:44:3a:1c:e5:44:a2:
         58:a0:bb:f4:5b:7d:6e:0e:12:67:eb:b1:d4:f3:10:12:10:89:
         36:f4:43:09:bb:78:b3:ce:7f:5e:e3:60:eb:f1:e4:b6:b8:fc:
         c2:41:b5:9d
-----BEGIN CERTIFICATE-----
MIIEWjCCA0KgAwIBAgIDQAHpMA0GCSqGSIb3DQEBCwUAMIHCMQswCQYDVQQGEwJO
TDEWMBQGA1UECAwNTm9vcmQtSG9sbGFuZDEWMBQGA1UECgwNRGlsYWRlbGUgQi5W
LjEuMCwGA1UECwwlRGlsYWRlbGUgQi5WLiBXZWIgU2FmZXR5IExpY2Vuc2luZyBD
QTEuMCwGA1UEAwwlRGlsYWRlbGUgQi5WLiBXZWIgU2FmZXR5IExpY2Vuc2luZyBD
QTEjMCEGCSqGSIb3DQEJARYUc3VwcG9ydEBkaWxhZGVsZS5jb20wHhcNMTYwODI2
MTcxOTExWhcNMTYxMDEwMTcxOTExWjCBnjELMAkGA1UEBhMCTkwxFjAUBgNVBAgM
DU5vb3JkLUhvbGxhbmQxFjAUBgNVBAoMDURpbGFkZWxlIEIuVi4xDjAMBgNVBAsM
BVNhbGVzMSowKAYDVQQDDCFMaWNlbnNlIEtleSAoNC10cmlhbC0xMDAwLTQwMDQ5
MSkxIzAhBgkqhkiG9w0BCQEWFHN1cHBvcnRAZGlsYWRlbGUuY29tMIIBIjANBgkq
hkiG9w0BAQEFAAOCAQ8AMIIBCgKCAQEAyv1os5TXNW3ubwqjwnYwKCGiIoBava+F
f3EwNYOoaWt6umgCj2Kd1LNwkavVCbTj793ExxYfepNqg/Fe8d6+SLK9T+SZQ+QL
5G2DQ9BpWiu4mIXhIUKr3WOn07+dKgt/Fv6P+Wne1kScg/4IhkevTcUGcf8zUKPU
FcsRkDOtXhTKbrsH8BCvxKsoOq4dI3HxBgHlEPsUfzhu05QV618zq0tCQIItR7QT
RUMxmKObg+ss9aAJ9qShRUwHya5UHmwV4iWEj7bBlc3oBgdgJPkW8cu9dVahrXL0
mB76d+UAcZXqjmQnTLXMVmK3eVS7L1wTcaPRWOg3LpCMon2vKDuSiwIDAQABo3sw
eTAJBgNVHRMEAjAAMCwGCWCGSAGG+EIBDQQfFh1PcGVuU1NMIEdlbmVyYXRlZCBD
ZXJ0aWZpY2F0ZTAdBgNVHQ4EFgQUigHLke5rTDRFY7IC3S9jB0ti5akwHwYDVR0j
BBgwFoAUmydjJ9c0GjA2yTf+ZzORsRLUKnAwDQYJKoZIhvcNAQELBQADggEBACzP
byG1KZC/Ona/V8+eVwNAhakENmd28olKlcnIwGfe4CC5z8MgQmSO/XksgeeTPj7j
PZDCrJGAyf7La81/2UbFBKwGmJMDaJ75t/WNfywJAfY8X9pZvmlqbtFO9RU/11uM
la/6FlJgbrPjZarRbs6MPBPyY0jF+x7dOvA+bDmKydYjHtmMo6cyommHlLPF1P+5
4Q2fpfqJGAU0C0QlaxdF6G4I616O+tIHqPsAk1xhhPOwtHazGa1qXQYKF/3MysXj
3ErvS2NwmyznMcK2eTd2bkQ6HOVEoligu/RbfW4OEmfrsdTzEBIQiTb0Qwm7eLPO
f17jYOvx5La4/MJBtZ0=
-----END CERTIFICATE-----
