Certificate:
    Data:
        Version: 3 (0x2)
        Serial Number: 5243197 (0x50013d)
    Signature Algorithm: sha256WithRSAEncryption
        Issuer: C=NL, ST=Noord-Holland, O=Diladele B.V., OU=Diladele B.V. Web Safety Licensing CA 5, CN=Diladele B.V. Web Safety Licensing CA 5/emailAddress=support@diladele.com
        Validity
            Not Before: May 24 08:26:43 2018 GMT
            Not After : Jun 27 08:26:43 2018 GMT
        Subject: C=NL, ST=Noord-Holland, O=Diladele B.V., OU=Sales, CN=License Key (5-trial-100-500317)/emailAddress=support@diladele.com
        Subject Public Key Info:
            Public Key Algorithm: rsaEncryption
                Public-Key: (2048 bit)
                Modulus:
                    00:a7:38:a2:f6:2f:12:4f:81:dd:c9:a3:01:81:ed:
                    28:c5:95:d3:6c:ca:4e:5d:5a:81:ef:ca:e9:fb:6c:
                    43:05:b6:89:10:95:10:24:77:e4:7c:88:50:a6:4e:
                    89:29:2b:b2:2c:2a:b1:76:16:78:26:35:e9:9b:a2:
                    fa:fb:3e:87:ad:b3:99:90:82:1e:b0:5d:5f:87:5b:
                    cc:7c:cf:77:55:dd:5d:0a:65:f5:92:28:f4:e6:ee:
                    98:d0:65:fc:a0:6a:36:c3:a2:6d:b5:2e:bb:c3:e8:
                    0d:b7:2f:b3:f9:cf:dd:5e:1d:ea:f6:07:c4:b1:ba:
                    e0:eb:b5:16:47:c9:1b:80:25:83:19:3e:1d:8d:75:
                    e4:07:8f:23:b9:34:40:da:8d:3e:34:26:c7:28:9f:
                    96:af:28:b2:8c:31:74:a5:a6:17:c8:b4:98:85:9e:
                    ac:42:d6:d8:08:a6:43:f2:24:7b:4d:db:1f:fe:b0:
                    9d:ec:22:fa:e4:c7:a3:72:08:30:8f:4c:72:17:8a:
                    da:19:4d:54:8a:4d:7b:d0:24:d8:3c:8d:f9:34:04:
                    10:0c:01:93:3d:de:d2:4b:60:9e:ee:90:1c:4e:ab:
                    54:e8:b7:e7:09:3d:06:92:d6:0f:82:0e:4f:83:2f:
                    bd:89:e9:38:dd:0d:79:72:51:7e:53:49:8a:87:b4:
                    bb:f3
                Exponent: 65537 (0x10001)
        X509v3 extensions:
            X509v3 Basic Constraints: 
                CA:FALSE
            Netscape Comment: 
                OpenSSL Generated Certificate
            X509v3 Subject Key Identifier: 
                CE:5A:B8:43:24:11:D8:D3:C3:30:C8:62:74:2F:8F:0F:C2:4F:67:39
            X509v3 Authority Key Identifier: 
                keyid:CB:DC:C7:A1:90:C5:A4:2E:51:CB:2D:5E:DA:81:20:CB:F7:2B:1B:66

    Signature Algorithm: sha256WithRSAEncryption
         1d:fb:55:08:78:b7:35:9a:7c:14:98:3c:e3:a3:5e:a0:1a:24:
         a9:65:d6:41:ab:f4:67:8f:45:11:4f:44:ab:f1:d0:a9:54:cc:
         e3:2f:04:8c:6e:5e:ab:aa:0c:10:ee:13:f4:0d:fb:eb:6f:4c:
         5c:c4:80:31:a8:11:94:e4:f0:58:be:2d:3c:0a:e2:0d:ca:9d:
         9a:b1:c5:48:c4:dd:9f:11:40:6f:5d:e4:79:5c:ca:a0:5f:8f:
         e2:01:df:f6:37:c0:2a:cb:94:e3:7e:fa:62:38:e9:53:14:35:
         22:3d:bf:75:e0:d7:d8:a0:e6:2c:ea:c3:25:ef:20:c9:e9:96:
         f5:65:6a:c4:89:f3:d4:39:b4:3f:c6:1c:7b:f6:f6:83:65:72:
         c6:7e:da:93:15:d4:bb:69:4e:61:da:f8:23:e9:43:63:dd:d4:
         be:16:52:60:3c:14:72:6b:f5:1d:13:2b:1a:4b:cd:fa:59:45:
         b3:bf:bb:f4:0e:c8:48:83:9d:f6:4d:99:36:19:99:c2:85:54:
         ca:18:92:71:3c:9c:1c:16:e2:bc:66:aa:45:cb:fd:71:31:00:
         e5:af:60:24:32:1b:3f:fb:02:0d:a1:c5:fe:ef:a6:43:05:ab:
         00:8f:1e:e9:a7:57:dc:48:44:a8:1c:42:dc:4b:7f:44:e6:6a:
         31:dd:40:fb
-----BEGIN CERTIFICATE-----
MIIEXTCCA0WgAwIBAgIDUAE9MA0GCSqGSIb3DQEBCwUAMIHGMQswCQYDVQQGEwJO
TDEWMBQGA1UECAwNTm9vcmQtSG9sbGFuZDEWMBQGA1UECgwNRGlsYWRlbGUgQi5W
LjEwMC4GA1UECwwnRGlsYWRlbGUgQi5WLiBXZWIgU2FmZXR5IExpY2Vuc2luZyBD
QSA1MTAwLgYDVQQDDCdEaWxhZGVsZSBCLlYuIFdlYiBTYWZldHkgTGljZW5zaW5n
IENBIDUxIzAhBgkqhkiG9w0BCQEWFHN1cHBvcnRAZGlsYWRlbGUuY29tMB4XDTE4
MDUyNDA4MjY0M1oXDTE4MDYyNzA4MjY0M1owgZ0xCzAJBgNVBAYTAk5MMRYwFAYD
VQQIDA1Ob29yZC1Ib2xsYW5kMRYwFAYDVQQKDA1EaWxhZGVsZSBCLlYuMQ4wDAYD
VQQLDAVTYWxlczEpMCcGA1UEAwwgTGljZW5zZSBLZXkgKDUtdHJpYWwtMTAwLTUw
MDMxNykxIzAhBgkqhkiG9w0BCQEWFHN1cHBvcnRAZGlsYWRlbGUuY29tMIIBIjAN
BgkqhkiG9w0BAQEFAAOCAQ8AMIIBCgKCAQEApzii9i8ST4HdyaMBge0oxZXTbMpO
XVqB78rp+2xDBbaJEJUQJHfkfIhQpk6JKSuyLCqxdhZ4JjXpm6L6+z6HrbOZkIIe
sF1fh1vMfM93Vd1dCmX1kij05u6Y0GX8oGo2w6JttS67w+gNty+z+c/dXh3q9gfE
sbrg67UWR8kbgCWDGT4djXXkB48juTRA2o0+NCbHKJ+WryiyjDF0paYXyLSYhZ6s
QtbYCKZD8iR7Tdsf/rCd7CL65Mejcggwj0xyF4raGU1Uik170CTYPI35NAQQDAGT
Pd7SS2Ce7pAcTqtU6LfnCT0GktYPgg5Pgy+9iek43Q15clF+U0mKh7S78wIDAQAB
o3sweTAJBgNVHRMEAjAAMCwGCWCGSAGG+EIBDQQfFh1PcGVuU1NMIEdlbmVyYXRl
ZCBDZXJ0aWZpY2F0ZTAdBgNVHQ4EFgQUzlq4QyQR2NPDMMhidC+PD8JPZzkwHwYD
VR0jBBgwFoAUy9zHoZDFpC5Ryy1e2oEgy/crG2YwDQYJKoZIhvcNAQELBQADggEB
AB37VQh4tzWafBSYPOOjXqAaJKll1kGr9GePRRFPRKvx0KlUzOMvBIxuXquqDBDu
E/QN++tvTFzEgDGoEZTk8Fi+LTwK4g3KnZqxxUjE3Z8RQG9d5HlcyqBfj+IB3/Y3
wCrLlON++mI46VMUNSI9v3Xg19ig5izqwyXvIMnplvVlasSJ89Q5tD/GHHv29oNl
csZ+2pMV1LtpTmHa+CPpQ2Pd1L4WUmA8FHJr9R0TKxpLzfpZRbO/u/QOyEiDnfZN
mTYZmcKFVMoYknE8nBwW4rxmqkXL/XExAOWvYCQyGz/7Ag2hxf7vpkMFqwCPHumn
V9xIRKgcQtxLf0TmajHdQPs=
-----END CERTIFICATE-----
