Certificate:
    Data:
        Version: 3 (0x2)
        Serial Number: 5244661 (0x5006f5)
    Signature Algorithm: sha256WithRSAEncryption
        Issuer: C=NL, ST=Noord-Holland, O=Diladele B.V., OU=Diladele B.V. Web Safety Licensing CA 5, CN=Diladele B.V. Web Safety Licensing CA 5/emailAddress=support@diladele.com
        Validity
            Not Before: Dec 26 09:42:57 2020 GMT
            Not After : Feb  7 09:42:57 2021 GMT
        Subject: C=NL, ST=Noord-Holland, O=Diladele B.V., OU=Sales, CN=License Key (5-trial-50-501791)/emailAddress=support@diladele.com
        Subject Public Key Info:
            Public Key Algorithm: rsaEncryption
                Public-Key: (2048 bit)
                Modulus:
                    00:c0:92:8f:6c:cf:fa:3e:af:27:74:36:5a:d4:e2:
                    c3:03:57:b7:12:57:91:f0:e9:f0:bb:bb:86:5b:49:
                    51:95:b6:ba:62:6c:f7:98:4c:47:06:9f:ca:c7:21:
                    07:ce:b8:7e:32:3f:55:3f:0a:f2:d1:a5:0e:ad:f3:
                    e4:b4:da:db:fa:90:ff:44:54:a5:e3:c3:8f:a3:8a:
                    a5:0d:53:dd:4e:47:fb:85:33:ed:d2:c9:f8:7c:5b:
                    5a:d6:77:f1:51:2a:b6:a6:f7:31:b8:4d:00:87:42:
                    6e:a0:c3:1c:9e:32:50:37:67:44:3e:0b:b6:c5:f7:
                    40:52:fe:d8:55:7a:f7:36:33:21:fd:a4:33:85:65:
                    13:86:92:43:42:8e:f8:d8:2a:db:3b:d4:e9:1e:9b:
                    73:e1:78:59:62:24:ac:7c:75:b1:c2:d8:a1:26:dc:
                    8e:cf:8e:e0:37:36:fa:e5:c1:25:16:f7:24:de:d1:
                    86:f5:a2:14:5a:43:37:0c:5a:bf:da:db:83:02:a6:
                    4f:4e:4f:a8:92:11:03:51:fa:d7:b2:e2:8f:cd:77:
                    58:06:6d:5d:2b:b6:f3:ec:bc:71:63:e1:35:35:10:
                    3a:71:91:87:56:a3:05:92:c4:b7:32:86:7c:01:a9:
                    52:3e:2b:61:97:fa:ca:13:d9:7a:24:e2:5b:0c:13:
                    59:ad
                Exponent: 65537 (0x10001)
        X509v3 extensions:
            X509v3 Basic Constraints: 
                CA:FALSE
            Netscape Comment: 
                OpenSSL Generated Certificate
            X509v3 Subject Key Identifier: 
                A3:7B:E0:9D:93:80:1B:93:D0:5D:DF:46:CE:C7:F8:8C:A3:9E:83:CC
            X509v3 Authority Key Identifier: 
                keyid:CB:DC:C7:A1:90:C5:A4:2E:51:CB:2D:5E:DA:81:20:CB:F7:2B:1B:66

    Signature Algorithm: sha256WithRSAEncryption
         3f:b7:22:ed:23:75:36:2a:90:ef:2f:35:9e:75:b5:d7:9a:a2:
         0a:58:9c:75:c2:bc:5b:d7:70:0e:13:5d:b9:94:a0:9f:af:90:
         3b:5d:05:7c:4c:39:79:3b:ae:29:8d:f8:72:6f:38:32:f0:c1:
         6d:73:03:00:f4:de:c9:88:a2:be:e3:a2:a0:61:b0:e5:e7:4b:
         84:a8:01:c0:8d:fa:ba:5b:c6:8d:8a:c0:43:2f:10:99:6d:c4:
         d9:58:15:93:36:bc:6a:33:b0:d2:00:79:a3:2c:91:a6:69:54:
         b6:51:9a:f4:5a:97:a5:a1:01:5f:df:d1:e7:e3:75:2e:1d:7b:
         fd:20:13:bd:c3:f7:1f:e4:08:b6:d3:c9:2b:e7:2f:4c:98:09:
         b7:18:80:6d:02:6e:ed:22:ed:04:a3:da:7b:fa:d6:29:55:ea:
         40:bf:52:5d:5b:e5:e1:ed:1a:d0:e0:59:69:00:95:4b:df:35:
         01:d0:d8:f9:ad:35:62:9a:88:1e:c3:43:c0:1e:3d:39:8e:e7:
         e4:a2:b9:12:15:81:71:25:7f:e2:a6:69:68:cf:71:18:f1:7d:
         21:2c:4f:f3:b9:92:90:28:b8:56:2b:42:f3:16:3b:ab:9e:e7:
         a5:49:97:cf:fb:be:bb:d2:b9:5a:11:f5:aa:60:7c:65:81:26:
         9c:55:90:93
-----BEGIN CERTIFICATE-----
MIIEXDCCA0SgAwIBAgIDUAb1MA0GCSqGSIb3DQEBCwUAMIHGMQswCQYDVQQGEwJO
TDEWMBQGA1UECAwNTm9vcmQtSG9sbGFuZDEWMBQGA1UECgwNRGlsYWRlbGUgQi5W
LjEwMC4GA1UECwwnRGlsYWRlbGUgQi5WLiBXZWIgU2FmZXR5IExpY2Vuc2luZyBD
QSA1MTAwLgYDVQQDDCdEaWxhZGVsZSBCLlYuIFdlYiBTYWZldHkgTGljZW5zaW5n
IENBIDUxIzAhBgkqhkiG9w0BCQEWFHN1cHBvcnRAZGlsYWRlbGUuY29tMB4XDTIw
MTIyNjA5NDI1N1oXDTIxMDIwNzA5NDI1N1owgZwxCzAJBgNVBAYTAk5MMRYwFAYD
VQQIDA1Ob29yZC1Ib2xsYW5kMRYwFAYDVQQKDA1EaWxhZGVsZSBCLlYuMQ4wDAYD
VQQLDAVTYWxlczEoMCYGA1UEAwwfTGljZW5zZSBLZXkgKDUtdHJpYWwtNTAtNTAx
NzkxKTEjMCEGCSqGSIb3DQEJARYUc3VwcG9ydEBkaWxhZGVsZS5jb20wggEiMA0G
CSqGSIb3DQEBAQUAA4IBDwAwggEKAoIBAQDAko9sz/o+ryd0NlrU4sMDV7cSV5Hw
6fC7u4ZbSVGVtrpibPeYTEcGn8rHIQfOuH4yP1U/CvLRpQ6t8+S02tv6kP9EVKXj
w4+jiqUNU91OR/uFM+3Syfh8W1rWd/FRKram9zG4TQCHQm6gwxyeMlA3Z0Q+C7bF
90BS/thVevc2MyH9pDOFZROGkkNCjvjYKts71Okem3PheFliJKx8dbHC2KEm3I7P
juA3NvrlwSUW9yTe0Yb1ohRaQzcMWr/a24MCpk9OT6iSEQNR+tey4o/Nd1gGbV0r
tvPsvHFj4TU1EDpxkYdWowWSxLcyhnwBqVI+K2GX+soT2Xok4lsME1mtAgMBAAGj
ezB5MAkGA1UdEwQCMAAwLAYJYIZIAYb4QgENBB8WHU9wZW5TU0wgR2VuZXJhdGVk
IENlcnRpZmljYXRlMB0GA1UdDgQWBBSje+Cdk4Abk9Bd30bOx/iMo56DzDAfBgNV
HSMEGDAWgBTL3MehkMWkLlHLLV7agSDL9ysbZjANBgkqhkiG9w0BAQsFAAOCAQEA
P7ci7SN1NiqQ7y81nnW115qiClicdcK8W9dwDhNduZSgn6+QO10FfEw5eTuuKY34
cm84MvDBbXMDAPTeyYiivuOioGGw5edLhKgBwI36ulvGjYrAQy8QmW3E2VgVkza8
ajOw0gB5oyyRpmlUtlGa9FqXpaEBX9/R5+N1Lh17/SATvcP3H+QIttPJK+cvTJgJ
txiAbQJu7SLtBKPae/rWKVXqQL9SXVvl4e0a0OBZaQCVS981AdDY+a01YpqIHsND
wB49OY7n5KK5EhWBcSV/4qZpaM9xGPF9ISxP87mSkCi4VitC8xY7q57npUmXz/u+
u9K5WhH1qmB8ZYEmnFWQkw==
-----END CERTIFICATE-----
