Certificate:
    Data:
        Version: 3 (0x2)
        Serial Number: 5245181 (0x5008fd)
    Signature Algorithm: sha256WithRSAEncryption
        Issuer: C=NL, ST=Noord-Holland, O=Diladele B.V., OU=Diladele B.V. Web Safety Licensing CA 5, CN=Diladele B.V. Web Safety Licensing CA 5/emailAddress=support@diladele.com
        Validity
            Not Before: Feb  9 06:47:16 2022 GMT
            Not After : Mar 11 06:47:16 2022 GMT
        Subject: C=NL, ST=Noord-Holland, O=Diladele B.V., OU=Sales, CN=License Key (5-trial-50-502315)/emailAddress=support@diladele.com
        Subject Public Key Info:
            Public Key Algorithm: rsaEncryption
                Public-Key: (2048 bit)
                Modulus:
                    00:c4:3e:6d:2b:7d:91:18:a4:11:2d:08:90:9c:f7:
                    df:83:5d:fa:e5:88:26:25:66:b4:b5:7d:5c:6b:4b:
                    17:66:50:d7:92:7e:0a:ba:84:70:15:c8:ee:0f:bc:
                    40:21:3a:62:75:c6:eb:f0:78:24:62:a2:79:62:c0:
                    69:19:1f:91:dc:62:e2:8a:d2:25:65:c1:2c:ec:ae:
                    98:3b:ed:b7:a1:56:d7:65:90:7e:9f:4e:e8:10:5f:
                    41:d4:6f:ed:b9:1c:3e:d2:8b:d5:9c:5f:94:d8:6a:
                    3b:5f:c8:56:74:b6:eb:c1:7c:80:c5:00:84:c8:a5:
                    c0:02:ee:98:5d:e2:2a:fb:0f:ed:9e:d2:dc:f8:39:
                    6e:a6:b4:39:96:4d:dd:3b:dd:34:8b:f8:d7:15:70:
                    2a:7b:10:43:3f:90:e2:4c:4a:e6:d0:7a:9f:c1:e2:
                    ba:f0:0d:6f:b1:b9:be:84:1b:1c:b3:11:41:a9:da:
                    ca:2d:0f:22:67:09:ed:83:d1:c7:37:e2:36:19:03:
                    7f:cf:62:00:0c:39:4e:f8:f6:f7:98:1f:18:b8:63:
                    05:ab:d6:63:62:31:29:8a:37:19:3f:e8:2e:80:c2:
                    83:6a:99:60:e1:a6:6d:6e:b6:2a:6b:22:22:be:78:
                    3d:06:f7:c4:dc:d5:f6:fb:a3:47:9e:cd:ba:f6:20:
                    9f:bf
                Exponent: 65537 (0x10001)
        X509v3 extensions:
            X509v3 Basic Constraints: 
                CA:FALSE
            Netscape Comment: 
                OpenSSL Generated Certificate
            X509v3 Subject Key Identifier: 
                8C:A4:C0:3C:EA:AE:69:63:6C:CD:0A:A1:F3:E5:99:A7:B1:3D:2C:01
            X509v3 Authority Key Identifier: 
                keyid:CB:DC:C7:A1:90:C5:A4:2E:51:CB:2D:5E:DA:81:20:CB:F7:2B:1B:66

    Signature Algorithm: sha256WithRSAEncryption
         40:df:6d:a6:51:a5:63:8d:f2:79:d1:a6:4f:a2:d3:54:dc:f8:
         d3:03:b9:d6:60:66:5c:09:d3:53:48:a7:61:b6:73:c2:76:a9:
         fd:99:4b:33:9c:08:8e:fb:c1:8b:c4:12:9f:5c:fd:82:c4:e0:
         26:58:6e:fb:0c:e2:0b:d6:77:2d:76:b6:36:5c:2a:22:ab:56:
         69:a4:1a:b0:73:d3:d4:41:2b:8d:7d:4e:9c:16:c6:3c:18:3f:
         38:8c:f5:7f:6e:f4:b9:98:26:4e:c2:e5:42:b7:83:17:07:b1:
         75:e3:c6:8b:4a:d5:7e:fa:d1:96:97:c7:bc:0c:2b:45:dc:4f:
         63:b6:99:ef:57:f0:4a:b8:4c:35:43:cc:91:61:6c:ae:77:e0:
         e5:ce:56:6c:a2:60:ca:c9:4c:7e:75:47:25:ba:64:ba:43:c5:
         59:86:35:9c:fb:7a:73:ff:81:49:c8:0e:3d:35:9e:e2:50:43:
         5c:bb:39:09:d7:a8:e2:1f:b6:8f:41:96:16:a6:1b:aa:1b:f8:
         bd:78:34:10:ff:d0:bd:42:5a:d7:26:cf:aa:36:c2:21:19:15:
         8c:18:be:6d:73:1f:f6:d4:0e:2b:b5:9a:d8:bb:bd:66:7e:d6:
         8e:45:93:64:72:16:62:82:23:8d:36:c9:1b:63:c1:86:99:84:
         b4:8d:27:56
-----BEGIN CERTIFICATE-----
MIIEXDCCA0SgAwIBAgIDUAj9MA0GCSqGSIb3DQEBCwUAMIHGMQswCQYDVQQGEwJO
TDEWMBQGA1UECAwNTm9vcmQtSG9sbGFuZDEWMBQGA1UECgwNRGlsYWRlbGUgQi5W
LjEwMC4GA1UECwwnRGlsYWRlbGUgQi5WLiBXZWIgU2FmZXR5IExpY2Vuc2luZyBD
QSA1MTAwLgYDVQQDDCdEaWxhZGVsZSBCLlYuIFdlYiBTYWZldHkgTGljZW5zaW5n
IENBIDUxIzAhBgkqhkiG9w0BCQEWFHN1cHBvcnRAZGlsYWRlbGUuY29tMB4XDTIy
MDIwOTA2NDcxNloXDTIyMDMxMTA2NDcxNlowgZwxCzAJBgNVBAYTAk5MMRYwFAYD
VQQIDA1Ob29yZC1Ib2xsYW5kMRYwFAYDVQQKDA1EaWxhZGVsZSBCLlYuMQ4wDAYD
VQQLDAVTYWxlczEoMCYGA1UEAwwfTGljZW5zZSBLZXkgKDUtdHJpYWwtNTAtNTAy
MzE1KTEjMCEGCSqGSIb3DQEJARYUc3VwcG9ydEBkaWxhZGVsZS5jb20wggEiMA0G
CSqGSIb3DQEBAQUAA4IBDwAwggEKAoIBAQDEPm0rfZEYpBEtCJCc99+DXfrliCYl
ZrS1fVxrSxdmUNeSfgq6hHAVyO4PvEAhOmJ1xuvweCRionliwGkZH5HcYuKK0iVl
wSzsrpg77behVtdlkH6fTugQX0HUb+25HD7Si9WcX5TYajtfyFZ0tuvBfIDFAITI
pcAC7phd4ir7D+2e0tz4OW6mtDmWTd073TSL+NcVcCp7EEM/kOJMSubQep/B4rrw
DW+xub6EGxyzEUGp2sotDyJnCe2D0cc34jYZA3/PYgAMOU749veYHxi4YwWr1mNi
MSmKNxk/6C6AwoNqmWDhpm1utiprIiK+eD0G98Tc1fb7o0eezbr2IJ+/AgMBAAGj
ezB5MAkGA1UdEwQCMAAwLAYJYIZIAYb4QgENBB8WHU9wZW5TU0wgR2VuZXJhdGVk
IENlcnRpZmljYXRlMB0GA1UdDgQWBBSMpMA86q5pY2zNCqHz5ZmnsT0sATAfBgNV
HSMEGDAWgBTL3MehkMWkLlHLLV7agSDL9ysbZjANBgkqhkiG9w0BAQsFAAOCAQEA
QN9tplGlY43yedGmT6LTVNz40wO51mBmXAnTU0inYbZzwnap/ZlLM5wIjvvBi8QS
n1z9gsTgJlhu+wziC9Z3LXa2NlwqIqtWaaQasHPT1EErjX1OnBbGPBg/OIz1f270
uZgmTsLlQreDFwexdePGi0rVfvrRlpfHvAwrRdxPY7aZ71fwSrhMNUPMkWFsrnfg
5c5WbKJgyslMfnVHJbpkukPFWYY1nPt6c/+BScgOPTWe4lBDXLs5Cdeo4h+2j0GW
FqYbqhv4vXg0EP/QvUJa1ybPqjbCIRkVjBi+bXMf9tQOK7Wa2Lu9Zn7WjkWTZHIW
YoIjjTbJG2PBhpmEtI0nVg==
-----END CERTIFICATE-----
