Certificate:
    Data:
        Version: 3 (0x2)
        Serial Number: 5244778 (0x50076a)
    Signature Algorithm: sha256WithRSAEncryption
        Issuer: C=NL, ST=Noord-Holland, O=Diladele B.V., OU=Diladele B.V. Web Safety Licensing CA 5, CN=Diladele B.V. Web Safety Licensing CA 5/emailAddress=support@diladele.com
        Validity
            Not Before: Mar 21 08:04:25 2021 GMT
            Not After : Apr 20 08:04:25 2021 GMT
        Subject: C=NL, ST=Noord-Holland, O=Diladele B.V., OU=Sales, CN=License Key (5-trial-50-501908)/emailAddress=support@diladele.com
        Subject Public Key Info:
            Public Key Algorithm: rsaEncryption
                Public-Key: (2048 bit)
                Modulus:
                    00:d0:8c:32:46:af:0f:e1:6a:24:d1:bf:1a:82:20:
                    bd:b4:6e:47:6a:02:f4:2e:a2:77:ea:22:d6:ca:49:
                    48:25:c5:96:15:73:83:c7:09:aa:cf:9a:5f:1b:47:
                    79:bb:bc:57:9c:bb:8b:f6:dc:2a:78:5b:4a:ff:43:
                    a6:d3:57:1e:e4:c1:ee:94:5e:4e:79:1f:43:96:4d:
                    29:2f:0e:1a:90:cb:73:f2:08:05:93:35:63:fa:98:
                    7f:a1:0c:25:d2:5d:73:6a:65:34:eb:9f:d3:fe:63:
                    e8:3d:c1:89:c8:31:f9:a8:a3:85:2d:1f:60:b1:88:
                    5a:22:75:c1:78:eb:fa:36:cf:86:9e:78:0d:25:1d:
                    72:17:78:33:b7:df:22:2e:43:37:ff:19:5f:9e:52:
                    66:98:f4:1d:71:56:76:57:e4:0e:90:f7:08:f2:32:
                    ac:58:0a:12:62:5f:3f:b6:01:19:c9:04:a6:65:5c:
                    6f:5a:9b:35:51:d5:e1:1a:04:a1:ef:ca:44:f1:5d:
                    5e:65:57:04:fe:cd:70:31:3f:c9:66:d2:a9:14:73:
                    90:f6:0c:41:c9:54:42:8f:50:67:6f:4d:78:c0:db:
                    0f:9b:6c:c7:79:5a:3b:bd:7f:26:2a:0c:2e:5b:34:
                    2b:7b:e3:cc:6d:5b:37:fd:67:01:aa:9f:d1:f3:7a:
                    4a:5f
                Exponent: 65537 (0x10001)
        X509v3 extensions:
            X509v3 Basic Constraints: 
                CA:FALSE
            Netscape Comment: 
                OpenSSL Generated Certificate
            X509v3 Subject Key Identifier: 
                55:2D:4F:0A:E7:BD:9F:79:05:13:EE:B4:77:78:5F:5D:B6:72:0F:AF
            X509v3 Authority Key Identifier: 
                keyid:CB:DC:C7:A1:90:C5:A4:2E:51:CB:2D:5E:DA:81:20:CB:F7:2B:1B:66

    Signature Algorithm: sha256WithRSAEncryption
         b3:10:7d:1e:74:20:ad:3e:fa:bf:a6:15:90:7c:dd:f1:6e:08:
         0c:52:4c:e1:07:d7:e4:2b:fe:c8:e6:dd:b4:b7:87:02:7b:aa:
         4f:9a:d6:78:6f:59:8b:f7:51:11:71:bc:65:61:5e:c5:57:9b:
         b6:da:2c:ec:b4:18:28:dd:51:6d:2d:57:c1:72:9e:e9:d0:5f:
         4f:bb:3b:a4:0c:d6:7e:9b:eb:c2:e6:6c:8c:7c:1f:fc:09:b2:
         c5:06:ec:fe:77:ab:7e:1f:21:62:df:c0:2c:87:71:7b:97:1b:
         ef:ca:22:f7:75:78:42:6d:e1:3b:f9:f5:31:4e:00:d2:c8:9f:
         a5:ff:c1:cc:b1:b8:2d:de:1d:1f:03:b5:f3:5b:00:07:43:f4:
         cf:99:43:1a:71:ab:0f:5c:6b:e5:00:c2:40:48:64:5b:14:08:
         7f:03:cb:05:0d:84:d8:88:94:4c:61:01:65:59:f2:cd:c7:78:
         3f:24:0d:f1:b5:72:c1:51:b5:3b:15:55:82:a4:51:dd:74:31:
         f7:3a:e0:c4:ac:ec:2d:fd:39:a3:db:3f:80:4c:88:39:1f:6e:
         89:48:94:bf:77:c6:a0:ff:8b:c1:e0:72:45:10:c7:d1:5f:bc:
         87:63:36:8b:ac:de:2c:e4:b3:08:06:30:c4:d0:42:3e:85:95:
         1f:cb:04:b0
-----BEGIN CERTIFICATE-----
MIIEXDCCA0SgAwIBAgIDUAdqMA0GCSqGSIb3DQEBCwUAMIHGMQswCQYDVQQGEwJO
TDEWMBQGA1UECAwNTm9vcmQtSG9sbGFuZDEWMBQGA1UECgwNRGlsYWRlbGUgQi5W
LjEwMC4GA1UECwwnRGlsYWRlbGUgQi5WLiBXZWIgU2FmZXR5IExpY2Vuc2luZyBD
QSA1MTAwLgYDVQQDDCdEaWxhZGVsZSBCLlYuIFdlYiBTYWZldHkgTGljZW5zaW5n
IENBIDUxIzAhBgkqhkiG9w0BCQEWFHN1cHBvcnRAZGlsYWRlbGUuY29tMB4XDTIx
MDMyMTA4MDQyNVoXDTIxMDQyMDA4MDQyNVowgZwxCzAJBgNVBAYTAk5MMRYwFAYD
VQQIDA1Ob29yZC1Ib2xsYW5kMRYwFAYDVQQKDA1EaWxhZGVsZSBCLlYuMQ4wDAYD
VQQLDAVTYWxlczEoMCYGA1UEAwwfTGljZW5zZSBLZXkgKDUtdHJpYWwtNTAtNTAx
OTA4KTEjMCEGCSqGSIb3DQEJARYUc3VwcG9ydEBkaWxhZGVsZS5jb20wggEiMA0G
CSqGSIb3DQEBAQUAA4IBDwAwggEKAoIBAQDQjDJGrw/haiTRvxqCIL20bkdqAvQu
onfqItbKSUglxZYVc4PHCarPml8bR3m7vFecu4v23Cp4W0r/Q6bTVx7kwe6UXk55
H0OWTSkvDhqQy3PyCAWTNWP6mH+hDCXSXXNqZTTrn9P+Y+g9wYnIMfmoo4UtH2Cx
iFoidcF46/o2z4aeeA0lHXIXeDO33yIuQzf/GV+eUmaY9B1xVnZX5A6Q9wjyMqxY
ChJiXz+2ARnJBKZlXG9amzVR1eEaBKHvykTxXV5lVwT+zXAxP8lm0qkUc5D2DEHJ
VEKPUGdvTXjA2w+bbMd5Wju9fyYqDC5bNCt748xtWzf9ZwGqn9HzekpfAgMBAAGj
ezB5MAkGA1UdEwQCMAAwLAYJYIZIAYb4QgENBB8WHU9wZW5TU0wgR2VuZXJhdGVk
IENlcnRpZmljYXRlMB0GA1UdDgQWBBRVLU8K572feQUT7rR3eF9dtnIPrzAfBgNV
HSMEGDAWgBTL3MehkMWkLlHLLV7agSDL9ysbZjANBgkqhkiG9w0BAQsFAAOCAQEA
sxB9HnQgrT76v6YVkHzd8W4IDFJM4QfX5Cv+yObdtLeHAnuqT5rWeG9Zi/dREXG8
ZWFexVebttos7LQYKN1RbS1XwXKe6dBfT7s7pAzWfpvrwuZsjHwf/AmyxQbs/ner
fh8hYt/ALIdxe5cb78oi93V4Qm3hO/n1MU4A0sifpf/BzLG4Ld4dHwO181sAB0P0
z5lDGnGrD1xr5QDCQEhkWxQIfwPLBQ2E2IiUTGEBZVnyzcd4PyQN8bVywVG1OxVV
gqRR3XQx9zrgxKzsLf05o9s/gEyIOR9uiUiUv3fGoP+LweByRRDH0V+8h2M2i6ze
LOSzCAYwxNBCPoWVH8sEsA==
-----END CERTIFICATE-----
