Certificate:
    Data:
        Version: 3 (0x2)
        Serial Number: 4195382 (0x400436)
    Signature Algorithm: sha256WithRSAEncryption
        Issuer: C=NL, ST=Noord-Holland, O=Diladele B.V., OU=Diladele B.V. Web Safety Licensing CA, CN=Diladele B.V. Web Safety Licensing CA/emailAddress=support@diladele.com
        Validity
            Not Before: Oct 31 08:55:47 2017 GMT
            Not After : Dec 15 08:55:47 2017 GMT
        Subject: C=NL, ST=Noord-Holland, O=Diladele B.V., OU=Sales, CN=License Key (4-trial-50-401080)/emailAddress=support@diladele.com
        Subject Public Key Info:
            Public Key Algorithm: rsaEncryption
                Public-Key: (2048 bit)
                Modulus:
                    00:b7:8c:03:22:aa:5a:60:ae:9f:90:84:e2:65:bd:
                    00:98:a0:ee:d0:9b:bb:5a:be:fd:ec:d9:8b:e8:84:
                    f5:d0:ca:12:e6:f2:ab:04:83:41:15:ca:56:15:18:
                    6f:57:d8:9a:c6:bb:43:99:61:c9:51:14:54:8d:fe:
                    9d:7b:9a:ba:16:f4:0b:12:4c:05:db:03:45:df:dc:
                    ef:00:21:54:5c:4f:ff:bc:ee:c7:fc:07:87:bd:6a:
                    56:59:14:4a:44:12:87:6a:5e:9f:46:94:01:7c:86:
                    76:cf:0f:a6:c0:73:0a:79:92:14:16:cf:a1:11:48:
                    08:ed:64:82:55:e2:b6:a2:cf:14:bb:28:35:ac:dd:
                    ac:f4:c5:4b:69:4e:2f:54:06:49:53:c7:1c:c4:01:
                    5c:d6:65:1a:1a:a2:87:a2:8d:2e:c4:07:ae:50:22:
                    dc:a3:72:fa:7f:65:69:ec:90:2f:eb:d6:ae:a4:54:
                    46:47:cb:2d:85:7d:cf:90:a5:e1:39:27:93:2b:e5:
                    99:d4:12:28:47:9c:e7:72:fb:c2:1a:45:d4:49:97:
                    d7:4f:7d:a7:9f:9c:75:2d:0a:ad:32:e3:cb:a6:6e:
                    95:49:42:72:e6:5e:69:27:a9:6b:cf:39:0d:9b:57:
                    e1:e7:34:8f:6e:73:28:3a:36:13:aa:a2:d9:e6:25:
                    49:0f
                Exponent: 65537 (0x10001)
        X509v3 extensions:
            X509v3 Basic Constraints: 
                CA:FALSE
            Netscape Comment: 
                OpenSSL Generated Certificate
            X509v3 Subject Key Identifier: 
                BE:6D:94:EA:D4:FA:AF:1E:E9:B0:68:18:42:D9:07:F9:E9:E2:B2:52
            X509v3 Authority Key Identifier: 
                keyid:9B:27:63:27:D7:34:1A:30:36:C9:37:FE:67:33:91:B1:12:D4:2A:70

    Signature Algorithm: sha256WithRSAEncryption
         43:60:4e:2d:cd:1d:56:8b:6d:8e:ff:92:80:52:9a:d0:bc:ee:
         89:26:85:13:2f:41:39:f0:24:9b:b1:6a:60:b7:b2:0a:a2:ad:
         e3:0e:ec:54:9c:c6:9c:ce:6a:72:99:77:41:74:01:83:57:51:
         c8:7e:ea:0c:c7:33:27:1c:6a:47:e2:9a:7e:ff:bb:c5:24:c1:
         3f:fc:39:02:1d:d1:ea:a3:ec:2f:bb:6e:f0:6e:e5:6a:a8:bb:
         cd:89:7e:fb:1e:65:13:5f:77:c8:f5:4d:89:13:0f:f0:3e:6e:
         0d:b5:61:16:0b:08:8d:2c:cf:4b:43:c7:91:34:7b:b8:22:82:
         fe:a5:20:d6:e4:1f:61:80:61:ae:14:b3:f4:b5:dd:a1:ce:ba:
         bf:f6:34:52:98:0a:5c:78:5f:6e:5a:66:93:4d:91:30:9d:51:
         31:67:38:dc:db:36:c7:5e:ca:b3:11:7e:80:95:c8:f1:4a:9f:
         5a:11:46:9f:49:a7:41:78:76:3e:35:97:9c:7d:91:99:7c:d3:
         bb:06:04:c2:e6:da:5e:e0:eb:4b:3d:48:b6:eb:9d:31:a3:0c:
         26:68:5b:e2:7b:34:f6:bf:a4:b3:5c:e3:08:a4:41:9d:e5:e3:
         36:63:67:54:2b:39:a1:52:81:10:25:4a:32:21:b3:ae:93:1d:
         73:be:48:fa
-----BEGIN CERTIFICATE-----
MIIEWDCCA0CgAwIBAgIDQAQ2MA0GCSqGSIb3DQEBCwUAMIHCMQswCQYDVQQGEwJO
TDEWMBQGA1UECAwNTm9vcmQtSG9sbGFuZDEWMBQGA1UECgwNRGlsYWRlbGUgQi5W
LjEuMCwGA1UECwwlRGlsYWRlbGUgQi5WLiBXZWIgU2FmZXR5IExpY2Vuc2luZyBD
QTEuMCwGA1UEAwwlRGlsYWRlbGUgQi5WLiBXZWIgU2FmZXR5IExpY2Vuc2luZyBD
QTEjMCEGCSqGSIb3DQEJARYUc3VwcG9ydEBkaWxhZGVsZS5jb20wHhcNMTcxMDMx
MDg1NTQ3WhcNMTcxMjE1MDg1NTQ3WjCBnDELMAkGA1UEBhMCTkwxFjAUBgNVBAgM
DU5vb3JkLUhvbGxhbmQxFjAUBgNVBAoMDURpbGFkZWxlIEIuVi4xDjAMBgNVBAsM
BVNhbGVzMSgwJgYDVQQDDB9MaWNlbnNlIEtleSAoNC10cmlhbC01MC00MDEwODAp
MSMwIQYJKoZIhvcNAQkBFhRzdXBwb3J0QGRpbGFkZWxlLmNvbTCCASIwDQYJKoZI
hvcNAQEBBQADggEPADCCAQoCggEBALeMAyKqWmCun5CE4mW9AJig7tCbu1q+/ezZ
i+iE9dDKEubyqwSDQRXKVhUYb1fYmsa7Q5lhyVEUVI3+nXuauhb0CxJMBdsDRd/c
7wAhVFxP/7zux/wHh71qVlkUSkQSh2pen0aUAXyGds8PpsBzCnmSFBbPoRFICO1k
glXitqLPFLsoNazdrPTFS2lOL1QGSVPHHMQBXNZlGhqih6KNLsQHrlAi3KNy+n9l
aeyQL+vWrqRURkfLLYV9z5Cl4TknkyvlmdQSKEec53L7whpF1EmX1099p5+cdS0K
rTLjy6ZulUlCcuZeaSepa885DZtX4ec0j25zKDo2E6qi2eYlSQ8CAwEAAaN7MHkw
CQYDVR0TBAIwADAsBglghkgBhvhCAQ0EHxYdT3BlblNTTCBHZW5lcmF0ZWQgQ2Vy
dGlmaWNhdGUwHQYDVR0OBBYEFL5tlOrU+q8e6bBoGELZB/np4rJSMB8GA1UdIwQY
MBaAFJsnYyfXNBowNsk3/mczkbES1CpwMA0GCSqGSIb3DQEBCwUAA4IBAQBDYE4t
zR1Wi22O/5KAUprQvO6JJoUTL0E58CSbsWpgt7IKoq3jDuxUnMaczmpymXdBdAGD
V1HIfuoMxzMnHGpH4pp+/7vFJME//DkCHdHqo+wvu27wbuVqqLvNiX77HmUTX3fI
9U2JEw/wPm4NtWEWCwiNLM9LQ8eRNHu4IoL+pSDW5B9hgGGuFLP0td2hzrq/9jRS
mApceF9uWmaTTZEwnVExZzjc2zbHXsqzEX6AlcjxSp9aEUafSadBeHY+NZecfZGZ
fNO7BgTC5tpe4OtLPUi2650xowwmaFviezT2v6SzXOMIpEGd5eM2Y2dUKzmhUoEQ
JUoyIbOukx1zvkj6
-----END CERTIFICATE-----
