Certificate:
    Data:
        Version: 3 (0x2)
        Serial Number: 4195192 (0x400378)
    Signature Algorithm: sha256WithRSAEncryption
        Issuer: C=NL, ST=Noord-Holland, O=Diladele B.V., OU=Diladele B.V. Web Safety Licensing CA, CN=Diladele B.V. Web Safety Licensing CA/emailAddress=support@diladele.com
        Validity
            Not Before: Jun  6 20:47:09 2017 GMT
            Not After : Jul 18 20:47:09 2017 GMT
        Subject: C=NL, ST=Noord-Holland, O=Diladele B.V., OU=Sales, CN=License Key (4-trial-1000-400891)/emailAddress=support@diladele.com
        Subject Public Key Info:
            Public Key Algorithm: rsaEncryption
                Public-Key: (2048 bit)
                Modulus:
                    00:d5:c8:02:f8:04:9f:f0:c8:4d:a4:50:bc:13:3c:
                    62:f5:4a:6f:47:a3:a7:87:71:48:df:1f:fe:08:84:
                    52:85:84:17:f8:7b:af:dc:27:f9:3b:c8:0f:b8:b5:
                    7d:a0:55:01:7d:ea:b8:69:e3:5f:4e:02:aa:53:55:
                    f7:b7:0f:2a:91:85:5c:3e:68:00:50:a7:50:f5:40:
                    20:8b:03:96:ae:bd:34:af:a7:1f:65:bc:35:12:c9:
                    dc:fc:00:96:b2:8e:2e:1b:30:d4:2a:8c:31:28:74:
                    52:c7:b2:06:db:81:79:2f:88:91:34:ce:69:2e:9b:
                    05:b0:70:10:39:0a:40:f3:d2:1c:6c:18:75:b3:b7:
                    51:e0:9e:ef:5e:f5:a2:f2:65:25:28:f1:53:f9:a4:
                    c2:d4:57:93:a7:56:fa:b6:cd:da:e6:1a:39:d6:ea:
                    6f:3c:06:2b:c1:f2:75:ba:dc:aa:2e:77:5b:04:17:
                    22:81:95:7c:a6:e5:70:f9:29:f0:87:83:e8:20:d9:
                    78:04:4f:2c:23:41:a9:74:bd:04:94:2d:2b:fe:b7:
                    fb:49:5f:20:39:6b:95:2d:82:62:98:0b:15:84:c0:
                    e6:2e:e8:39:3c:0b:54:d1:81:9b:b0:e0:f1:09:49:
                    4b:d2:f0:d0:b6:78:da:09:84:b4:96:ce:fa:d7:5d:
                    7c:69
                Exponent: 65537 (0x10001)
        X509v3 extensions:
            X509v3 Basic Constraints: 
                CA:FALSE
            Netscape Comment: 
                OpenSSL Generated Certificate
            X509v3 Subject Key Identifier: 
                78:BD:C1:04:80:A5:83:EB:06:26:BA:68:77:83:C4:41:88:01:B2:29
            X509v3 Authority Key Identifier: 
                keyid:9B:27:63:27:D7:34:1A:30:36:C9:37:FE:67:33:91:B1:12:D4:2A:70

    Signature Algorithm: sha256WithRSAEncryption
         37:b6:50:65:f9:e5:56:db:dc:25:bf:c7:4e:2b:72:7e:53:90:
         e4:e8:c6:97:14:20:27:53:8c:3e:6d:71:fc:10:7a:78:3e:3f:
         5a:3b:0f:1a:ee:c1:3c:15:c9:fa:f6:b1:d5:c8:f8:df:d4:ba:
         7e:00:6d:1e:10:d7:84:d2:38:0f:a1:e7:d0:69:5d:fd:97:4c:
         7e:82:c5:92:bf:e5:fe:c3:d7:1e:b6:bf:ba:28:84:61:3d:85:
         a8:f2:4e:9a:b3:4a:95:31:cc:a2:58:c9:f6:bf:3e:1f:3d:22:
         6c:bf:44:a9:22:af:50:99:ea:4a:dc:84:22:3b:5a:55:15:db:
         b6:8b:84:7f:c3:8e:47:47:8b:c8:b1:b5:62:d1:2e:0d:d0:f7:
         a9:4e:1d:94:73:08:ec:fd:90:85:21:f2:12:9d:68:e5:cb:db:
         23:ef:3c:89:a3:28:13:73:c8:ab:6e:bb:56:38:4b:8f:19:3d:
         e2:45:6b:59:55:61:80:1f:22:33:0d:2d:4d:d1:23:20:24:a7:
         e9:8e:49:9b:0b:3b:0a:3e:2d:1f:be:f3:17:8e:b5:bd:61:1e:
         9a:07:bc:52:f5:b4:3c:f5:c2:9a:a4:15:d8:03:ba:0e:db:bd:
         e2:25:8d:79:32:aa:dd:a0:e2:da:b5:13:c3:f9:fb:d1:45:82:
         b6:63:92:06
-----BEGIN CERTIFICATE-----
MIIEWjCCA0KgAwIBAgIDQAN4MA0GCSqGSIb3DQEBCwUAMIHCMQswCQYDVQQGEwJO
TDEWMBQGA1UECAwNTm9vcmQtSG9sbGFuZDEWMBQGA1UECgwNRGlsYWRlbGUgQi5W
LjEuMCwGA1UECwwlRGlsYWRlbGUgQi5WLiBXZWIgU2FmZXR5IExpY2Vuc2luZyBD
QTEuMCwGA1UEAwwlRGlsYWRlbGUgQi5WLiBXZWIgU2FmZXR5IExpY2Vuc2luZyBD
QTEjMCEGCSqGSIb3DQEJARYUc3VwcG9ydEBkaWxhZGVsZS5jb20wHhcNMTcwNjA2
MjA0NzA5WhcNMTcwNzE4MjA0NzA5WjCBnjELMAkGA1UEBhMCTkwxFjAUBgNVBAgM
DU5vb3JkLUhvbGxhbmQxFjAUBgNVBAoMDURpbGFkZWxlIEIuVi4xDjAMBgNVBAsM
BVNhbGVzMSowKAYDVQQDDCFMaWNlbnNlIEtleSAoNC10cmlhbC0xMDAwLTQwMDg5
MSkxIzAhBgkqhkiG9w0BCQEWFHN1cHBvcnRAZGlsYWRlbGUuY29tMIIBIjANBgkq
hkiG9w0BAQEFAAOCAQ8AMIIBCgKCAQEA1cgC+ASf8MhNpFC8Ezxi9UpvR6Onh3FI
3x/+CIRShYQX+Huv3Cf5O8gPuLV9oFUBfeq4aeNfTgKqU1X3tw8qkYVcPmgAUKdQ
9UAgiwOWrr00r6cfZbw1Esnc/ACWso4uGzDUKowxKHRSx7IG24F5L4iRNM5pLpsF
sHAQOQpA89IcbBh1s7dR4J7vXvWi8mUlKPFT+aTC1FeTp1b6ts3a5ho51upvPAYr
wfJ1utyqLndbBBcigZV8puVw+Snwh4PoINl4BE8sI0GpdL0ElC0r/rf7SV8gOWuV
LYJimAsVhMDmLug5PAtU0YGbsODxCUlL0vDQtnjaCYS0ls761118aQIDAQABo3sw
eTAJBgNVHRMEAjAAMCwGCWCGSAGG+EIBDQQfFh1PcGVuU1NMIEdlbmVyYXRlZCBD
ZXJ0aWZpY2F0ZTAdBgNVHQ4EFgQUeL3BBIClg+sGJrpod4PEQYgBsikwHwYDVR0j
BBgwFoAUmydjJ9c0GjA2yTf+ZzORsRLUKnAwDQYJKoZIhvcNAQELBQADggEBADe2
UGX55Vbb3CW/x04rcn5TkOToxpcUICdTjD5tcfwQeng+P1o7DxruwTwVyfr2sdXI
+N/Uun4AbR4Q14TSOA+h59BpXf2XTH6CxZK/5f7D1x62v7oohGE9hajyTpqzSpUx
zKJYyfa/Ph89Imy/RKkir1CZ6krchCI7WlUV27aLhH/DjkdHi8ixtWLRLg3Q96lO
HZRzCOz9kIUh8hKdaOXL2yPvPImjKBNzyKtuu1Y4S48ZPeJFa1lVYYAfIjMNLU3R
IyAkp+mOSZsLOwo+LR++8xeOtb1hHpoHvFL1tDz1wpqkFdgDug7bveIljXkyqt2g
4tq1E8P5+9FFgrZjkgY=
-----END CERTIFICATE-----
