Certificate:
    Data:
        Version: 3 (0x2)
        Serial Number: 5243332 (0x5001c4)
    Signature Algorithm: sha256WithRSAEncryption
        Issuer: C=NL, ST=Noord-Holland, O=Diladele B.V., OU=Diladele B.V. Web Safety Licensing CA 5, CN=Diladele B.V. Web Safety Licensing CA 5/emailAddress=support@diladele.com
        Validity
            Not Before: Aug 19 17:16:56 2018 GMT
            Not After : Sep 20 17:16:56 2018 GMT
        Subject: C=NL, ST=Noord-Holland, O=Diladele B.V., OU=Sales, CN=License Key (5-trial-100-500451)/emailAddress=support@diladele.com
        Subject Public Key Info:
            Public Key Algorithm: rsaEncryption
                Public-Key: (2048 bit)
                Modulus:
                    00:a5:44:6a:74:81:dd:c2:5d:b4:0a:cc:f3:bf:aa:
                    54:9e:23:80:29:dd:70:de:b6:51:e5:e6:e9:3a:a8:
                    80:66:48:f1:ce:86:fb:c2:fa:a2:2c:0a:73:aa:80:
                    36:12:e2:30:ac:89:5d:3b:dd:f5:70:a6:2a:0c:61:
                    ee:f8:26:81:e8:5f:6a:68:d1:8d:83:98:25:da:3a:
                    60:2c:d3:65:a7:03:08:87:b5:b4:19:84:b5:7e:5e:
                    6f:80:88:db:c6:26:7d:83:26:11:d9:20:ae:92:c0:
                    a6:84:01:2d:49:b3:8a:34:f7:91:82:36:d5:fe:e9:
                    8f:d8:d5:56:8b:5d:99:1e:14:58:b3:67:bc:d9:96:
                    12:22:7c:0c:83:9e:36:48:75:a6:2c:ea:7b:09:42:
                    5b:8d:3b:33:6a:6c:d1:a9:f8:cd:d7:23:39:23:e0:
                    5c:25:59:2e:45:2e:01:7a:ee:a9:8a:94:8b:26:6b:
                    16:c8:0d:2d:bf:84:a9:31:6a:e3:9a:02:de:e1:34:
                    d5:d9:33:ef:bc:0b:6f:32:7f:1d:77:f0:8b:b3:35:
                    40:06:e6:7b:0e:66:2f:c4:8a:7b:5c:39:31:f9:b8:
                    6a:1a:c7:80:14:fa:2d:0f:a1:f7:2e:cb:4e:4c:bf:
                    c5:9a:c4:a1:cb:3c:fb:5a:8c:32:a0:c4:a6:f9:0e:
                    22:45
                Exponent: 65537 (0x10001)
        X509v3 extensions:
            X509v3 Basic Constraints: 
                CA:FALSE
            Netscape Comment: 
                OpenSSL Generated Certificate
            X509v3 Subject Key Identifier: 
                E8:35:65:77:99:9C:AE:52:A8:5B:88:AC:FE:DF:91:2B:E0:30:E8:72
            X509v3 Authority Key Identifier: 
                keyid:CB:DC:C7:A1:90:C5:A4:2E:51:CB:2D:5E:DA:81:20:CB:F7:2B:1B:66

    Signature Algorithm: sha256WithRSAEncryption
         1c:cc:e9:eb:8e:34:96:60:a9:32:d9:2d:26:56:52:77:2f:dd:
         64:59:54:29:e9:8c:88:94:36:93:4a:fd:dc:1c:00:91:8a:32:
         5d:2b:07:05:86:68:c5:bd:ef:2d:8f:ea:ff:6c:11:f8:52:6e:
         fd:bd:b1:94:99:fd:6d:e2:19:d4:67:75:6f:c2:fa:25:37:bf:
         a6:ec:9e:da:67:7a:04:81:8f:c8:60:5a:09:9a:c9:3a:1c:c0:
         e6:de:e6:f3:be:70:7a:29:1d:63:3e:6f:df:b4:c9:c0:55:7b:
         36:81:a1:b2:aa:f8:96:5f:74:87:41:4b:f7:18:c3:14:8f:35:
         03:02:30:bd:78:7a:da:2f:4b:dd:06:04:ed:52:3e:8d:2e:03:
         0e:5a:49:79:b4:a3:91:80:bc:53:11:49:0a:3c:d5:4e:42:08:
         3b:b3:de:e0:46:f2:34:af:1c:cd:4e:bb:ce:80:a1:7c:16:04:
         99:af:90:f9:5d:b2:6e:e5:a4:99:65:3d:c5:51:e9:fc:98:81:
         02:72:21:ff:ed:49:fe:b0:e5:6c:f7:da:54:ab:ca:86:68:97:
         14:1f:3f:2c:74:18:b1:b5:44:2b:96:e5:bb:5e:d2:b5:8f:18:
         0d:81:2f:1f:37:0d:c8:2c:18:53:2c:8a:a3:77:27:09:29:b8:
         65:3d:60:fe
-----BEGIN CERTIFICATE-----
MIIEXTCCA0WgAwIBAgIDUAHEMA0GCSqGSIb3DQEBCwUAMIHGMQswCQYDVQQGEwJO
TDEWMBQGA1UECAwNTm9vcmQtSG9sbGFuZDEWMBQGA1UECgwNRGlsYWRlbGUgQi5W
LjEwMC4GA1UECwwnRGlsYWRlbGUgQi5WLiBXZWIgU2FmZXR5IExpY2Vuc2luZyBD
QSA1MTAwLgYDVQQDDCdEaWxhZGVsZSBCLlYuIFdlYiBTYWZldHkgTGljZW5zaW5n
IENBIDUxIzAhBgkqhkiG9w0BCQEWFHN1cHBvcnRAZGlsYWRlbGUuY29tMB4XDTE4
MDgxOTE3MTY1NloXDTE4MDkyMDE3MTY1NlowgZ0xCzAJBgNVBAYTAk5MMRYwFAYD
VQQIDA1Ob29yZC1Ib2xsYW5kMRYwFAYDVQQKDA1EaWxhZGVsZSBCLlYuMQ4wDAYD
VQQLDAVTYWxlczEpMCcGA1UEAwwgTGljZW5zZSBLZXkgKDUtdHJpYWwtMTAwLTUw
MDQ1MSkxIzAhBgkqhkiG9w0BCQEWFHN1cHBvcnRAZGlsYWRlbGUuY29tMIIBIjAN
BgkqhkiG9w0BAQEFAAOCAQ8AMIIBCgKCAQEApURqdIHdwl20Cszzv6pUniOAKd1w
3rZR5ebpOqiAZkjxzob7wvqiLApzqoA2EuIwrIldO931cKYqDGHu+CaB6F9qaNGN
g5gl2jpgLNNlpwMIh7W0GYS1fl5vgIjbxiZ9gyYR2SCuksCmhAEtSbOKNPeRgjbV
/umP2NVWi12ZHhRYs2e82ZYSInwMg542SHWmLOp7CUJbjTszamzRqfjN1yM5I+Bc
JVkuRS4Beu6pipSLJmsWyA0tv4SpMWrjmgLe4TTV2TPvvAtvMn8dd/CLszVABuZ7
DmYvxIp7XDkx+bhqGseAFPotD6H3LstOTL/FmsShyzz7WowyoMSm+Q4iRQIDAQAB
o3sweTAJBgNVHRMEAjAAMCwGCWCGSAGG+EIBDQQfFh1PcGVuU1NMIEdlbmVyYXRl
ZCBDZXJ0aWZpY2F0ZTAdBgNVHQ4EFgQU6DVld5mcrlKoW4is/t+RK+Aw6HIwHwYD
VR0jBBgwFoAUy9zHoZDFpC5Ryy1e2oEgy/crG2YwDQYJKoZIhvcNAQELBQADggEB
ABzM6euONJZgqTLZLSZWUncv3WRZVCnpjIiUNpNK/dwcAJGKMl0rBwWGaMW97y2P
6v9sEfhSbv29sZSZ/W3iGdRndW/C+iU3v6bsntpnegSBj8hgWgmayTocwObe5vO+
cHopHWM+b9+0ycBVezaBobKq+JZfdIdBS/cYwxSPNQMCML14etovS90GBO1SPo0u
Aw5aSXm0o5GAvFMRSQo81U5CCDuz3uBG8jSvHM1Ou86AoXwWBJmvkPldsm7lpJll
PcVR6fyYgQJyIf/tSf6w5Wz32lSryoZolxQfPyx0GLG1RCuW5bte0rWPGA2BLx83
DcgsGFMsiqN3JwkpuGU9YP4=
-----END CERTIFICATE-----
