Certificate:
    Data:
        Version: 3 (0x2)
        Serial Number: 5245283 (0x500963)
    Signature Algorithm: sha256WithRSAEncryption
        Issuer: C=NL, ST=Noord-Holland, O=Diladele B.V., OU=Diladele B.V. Web Safety Licensing CA 5, CN=Diladele B.V. Web Safety Licensing CA 5/emailAddress=support@diladele.com
        Validity
            Not Before: May 15 06:21:27 2022 GMT
            Not After : Jun 15 06:21:27 2022 GMT
        Subject: C=NL, ST=Noord-Holland, O=Diladele B.V., OU=Sales, CN=License Key (5-trial-50-502418)/emailAddress=support@diladele.com
        Subject Public Key Info:
            Public Key Algorithm: rsaEncryption
                Public-Key: (2048 bit)
                Modulus:
                    00:ee:bc:ef:49:5b:62:d4:1f:37:2f:42:d2:dc:a7:
                    19:85:56:67:91:f9:74:a8:cc:79:6a:05:7a:00:c0:
                    26:92:23:75:98:b4:67:fe:01:32:76:87:95:39:4a:
                    7a:75:c1:85:be:54:58:af:7a:37:91:f9:ac:cd:e9:
                    2e:38:92:a2:fe:54:16:26:d4:f5:28:af:08:2c:fa:
                    98:a7:c1:cc:3a:34:97:33:04:fa:2f:29:a9:bd:74:
                    8e:68:dc:c2:e5:da:9a:b3:94:43:e8:2d:00:f4:a0:
                    2b:27:cd:1b:8d:d0:fe:ce:dc:e7:0a:65:14:be:d7:
                    10:ad:76:3e:38:19:d7:e5:02:68:41:33:b7:b2:e7:
                    2b:3b:5f:98:e1:b1:eb:70:03:1a:92:c9:6f:e2:f0:
                    5e:44:d7:56:23:cb:7e:7c:78:ac:ca:c0:aa:f7:42:
                    62:39:7e:57:68:1d:cb:fb:55:12:da:b1:a1:c9:e0:
                    50:6d:d5:f6:68:33:c2:d0:12:0d:1e:f0:52:d7:1c:
                    81:30:bb:ec:3e:08:1f:6b:b7:9e:cb:22:1d:5b:a7:
                    26:f2:14:b0:4d:b0:29:d8:df:b9:19:f3:c2:6f:6f:
                    ae:a8:68:7f:34:f2:47:a8:c3:4f:b5:b5:94:f9:6b:
                    68:71:f8:0b:1f:88:b9:6e:46:a6:47:fa:5f:48:79:
                    ae:bf
                Exponent: 65537 (0x10001)
        X509v3 extensions:
            X509v3 Basic Constraints: 
                CA:FALSE
            Netscape Comment: 
                OpenSSL Generated Certificate
            X509v3 Subject Key Identifier: 
                E5:9D:53:98:D4:3F:CF:91:57:E6:3C:7F:A8:C5:95:A7:3C:C1:DF:6B
            X509v3 Authority Key Identifier: 
                keyid:CB:DC:C7:A1:90:C5:A4:2E:51:CB:2D:5E:DA:81:20:CB:F7:2B:1B:66

    Signature Algorithm: sha256WithRSAEncryption
         3d:7f:99:e7:98:1b:21:4d:05:10:53:42:ed:da:e1:ba:b1:5b:
         e0:bb:ba:89:10:77:91:64:09:71:32:c9:dd:09:9c:55:52:70:
         4f:d3:f8:27:f6:b0:3b:8f:6d:ef:cc:72:2d:02:6c:4e:a6:32:
         fb:6e:ef:5f:1b:3c:db:4d:5c:86:86:f7:49:8e:1b:99:e2:21:
         29:29:69:53:a0:4a:f9:07:60:d0:c0:4f:47:e3:93:84:6d:43:
         e3:bd:19:80:46:20:b2:37:91:33:c2:25:8b:5a:7c:18:3e:e8:
         2e:ea:50:ea:cd:1d:63:91:9a:6d:7d:d7:e1:29:54:7c:4c:2f:
         9f:25:67:0c:2a:1f:76:be:2c:f9:5d:bf:bc:69:77:ad:96:d5:
         5b:4a:7b:97:80:49:9d:a9:74:46:5b:22:79:1a:a8:00:04:93:
         13:56:21:8f:ad:5f:3e:cd:e2:89:2d:64:00:9a:1a:29:9c:c2:
         ac:6b:38:9f:5f:6b:ad:6b:fb:bb:87:28:90:84:37:5a:2c:76:
         4e:5a:06:bc:cb:a1:4d:53:5b:62:2a:4c:e6:b5:79:5f:77:3a:
         43:a1:86:1f:9c:08:09:74:5b:aa:ce:43:6d:2f:54:a7:57:e2:
         9a:7d:e8:16:93:4d:f7:cf:5b:48:09:30:7d:24:73:9f:47:15:
         79:be:a6:8b
-----BEGIN CERTIFICATE-----
MIIEXDCCA0SgAwIBAgIDUAljMA0GCSqGSIb3DQEBCwUAMIHGMQswCQYDVQQGEwJO
TDEWMBQGA1UECAwNTm9vcmQtSG9sbGFuZDEWMBQGA1UECgwNRGlsYWRlbGUgQi5W
LjEwMC4GA1UECwwnRGlsYWRlbGUgQi5WLiBXZWIgU2FmZXR5IExpY2Vuc2luZyBD
QSA1MTAwLgYDVQQDDCdEaWxhZGVsZSBCLlYuIFdlYiBTYWZldHkgTGljZW5zaW5n
IENBIDUxIzAhBgkqhkiG9w0BCQEWFHN1cHBvcnRAZGlsYWRlbGUuY29tMB4XDTIy
MDUxNTA2MjEyN1oXDTIyMDYxNTA2MjEyN1owgZwxCzAJBgNVBAYTAk5MMRYwFAYD
VQQIDA1Ob29yZC1Ib2xsYW5kMRYwFAYDVQQKDA1EaWxhZGVsZSBCLlYuMQ4wDAYD
VQQLDAVTYWxlczEoMCYGA1UEAwwfTGljZW5zZSBLZXkgKDUtdHJpYWwtNTAtNTAy
NDE4KTEjMCEGCSqGSIb3DQEJARYUc3VwcG9ydEBkaWxhZGVsZS5jb20wggEiMA0G
CSqGSIb3DQEBAQUAA4IBDwAwggEKAoIBAQDuvO9JW2LUHzcvQtLcpxmFVmeR+XSo
zHlqBXoAwCaSI3WYtGf+ATJ2h5U5Snp1wYW+VFivejeR+azN6S44kqL+VBYm1PUo
rwgs+pinwcw6NJczBPovKam9dI5o3MLl2pqzlEPoLQD0oCsnzRuN0P7O3OcKZRS+
1xCtdj44GdflAmhBM7ey5ys7X5jhsetwAxqSyW/i8F5E11Yjy358eKzKwKr3QmI5
fldoHcv7VRLasaHJ4FBt1fZoM8LQEg0e8FLXHIEwu+w+CB9rt57LIh1bpybyFLBN
sCnY37kZ88Jvb66oaH808keow0+1tZT5a2hx+AsfiLluRqZH+l9Iea6/AgMBAAGj
ezB5MAkGA1UdEwQCMAAwLAYJYIZIAYb4QgENBB8WHU9wZW5TU0wgR2VuZXJhdGVk
IENlcnRpZmljYXRlMB0GA1UdDgQWBBTlnVOY1D/PkVfmPH+oxZWnPMHfazAfBgNV
HSMEGDAWgBTL3MehkMWkLlHLLV7agSDL9ysbZjANBgkqhkiG9w0BAQsFAAOCAQEA
PX+Z55gbIU0FEFNC7drhurFb4Lu6iRB3kWQJcTLJ3QmcVVJwT9P4J/awO49t78xy
LQJsTqYy+27vXxs8201chob3SY4bmeIhKSlpU6BK+Qdg0MBPR+OThG1D470ZgEYg
sjeRM8Ili1p8GD7oLupQ6s0dY5GabX3X4SlUfEwvnyVnDCofdr4s+V2/vGl3rZbV
W0p7l4BJnal0RlsieRqoAASTE1Yhj61fPs3iiS1kAJoaKZzCrGs4n19rrWv7u4co
kIQ3Wix2TloGvMuhTVNbYipM5rV5X3c6Q6GGH5wICXRbqs5DbS9Up1fimn3oFpNN
989bSAkwfSRzn0cVeb6miw==
-----END CERTIFICATE-----
