Certificate:
    Data:
        Version: 3 (0x2)
        Serial Number: 5243567 (0x5002af)
    Signature Algorithm: sha256WithRSAEncryption
        Issuer: C=NL, ST=Noord-Holland, O=Diladele B.V., OU=Diladele B.V. Web Safety Licensing CA 5, CN=Diladele B.V. Web Safety Licensing CA 5/emailAddress=support@diladele.com
        Validity
            Not Before: Feb  2 05:35:54 2019 GMT
            Not After : Mar  5 05:35:54 2019 GMT
        Subject: C=NL, ST=Noord-Holland, O=Diladele B.V., OU=Sales, CN=License Key (5-trial-500-500689)/emailAddress=support@diladele.com
        Subject Public Key Info:
            Public Key Algorithm: rsaEncryption
                Public-Key: (2048 bit)
                Modulus:
                    00:a3:83:da:da:2a:7a:3d:32:2c:b8:fa:b5:3c:92:
                    cc:6a:9b:31:ee:2a:fa:88:76:1c:c8:2f:70:ae:33:
                    15:83:3d:39:f0:6c:7e:c7:7f:34:47:6f:d8:cf:54:
                    6f:59:2e:ed:89:ac:ef:50:fc:2a:ba:5b:ba:1d:c0:
                    d7:4d:3e:cb:d4:88:b2:e7:cd:99:50:f6:60:6e:00:
                    16:7b:8f:ca:cb:19:28:81:d8:d1:f6:da:21:85:b0:
                    8b:06:d9:fc:14:dd:3f:de:4c:84:42:0b:33:c2:f9:
                    ed:b1:8c:1c:fb:f9:95:77:64:cd:4d:16:0a:98:18:
                    0c:7f:10:67:d4:6b:43:06:96:59:3e:02:df:45:33:
                    0d:eb:24:3f:ff:84:4d:e5:ac:49:c7:52:d0:65:36:
                    0d:0d:ea:3e:ba:29:2e:22:c3:c5:fc:2e:68:8c:8c:
                    21:ba:4c:7c:cd:1b:2f:b4:78:28:eb:07:04:34:f4:
                    49:86:d9:ee:20:d0:be:16:68:b8:d2:cd:66:62:0e:
                    a0:93:47:a7:8b:5b:84:14:36:d0:90:56:9e:65:b3:
                    02:a6:58:91:24:3d:c8:6c:c2:d0:8d:88:b5:ef:27:
                    8e:c4:8f:8a:89:99:94:5c:f2:f7:22:24:dc:7d:5a:
                    55:51:53:df:01:73:27:cb:05:53:5f:63:4a:a2:e1:
                    e2:f3
                Exponent: 65537 (0x10001)
        X509v3 extensions:
            X509v3 Basic Constraints: 
                CA:FALSE
            Netscape Comment: 
                OpenSSL Generated Certificate
            X509v3 Subject Key Identifier: 
                26:92:D8:E7:09:61:22:73:FD:3C:87:32:1D:69:5C:03:91:4D:A3:72
            X509v3 Authority Key Identifier: 
                keyid:CB:DC:C7:A1:90:C5:A4:2E:51:CB:2D:5E:DA:81:20:CB:F7:2B:1B:66

    Signature Algorithm: sha256WithRSAEncryption
         b4:50:6a:73:f7:ee:99:40:0a:8e:7b:04:b2:3a:cd:88:27:4d:
         2a:47:84:13:3d:32:dc:f7:7f:cf:10:f2:9e:2c:58:ee:57:ac:
         72:17:42:7f:63:75:d0:d8:fc:d7:fa:a5:f3:84:df:ae:19:fc:
         74:31:bb:fe:86:8d:6d:2f:af:bc:ad:b2:b6:92:eb:03:78:2d:
         b0:30:52:47:31:80:b8:7f:6e:e3:b9:e2:0a:db:d5:ce:aa:09:
         e1:7d:21:20:08:9d:cf:48:8a:cf:bd:22:6f:cf:ba:e3:7f:45:
         ef:7e:3b:91:86:86:b5:54:15:7d:27:dc:90:01:9a:27:73:f1:
         52:12:84:8a:78:b1:8a:d1:17:75:0d:98:4c:06:6d:4f:9a:78:
         64:02:a7:ac:cf:bd:67:22:34:c5:c7:75:b9:40:1a:18:c5:be:
         7d:22:fe:47:ab:2c:19:95:e3:1b:c6:b0:7e:37:b9:99:0b:50:
         27:5b:ac:de:af:0a:f2:19:88:19:ea:5d:65:24:cc:95:63:d9:
         de:48:84:04:a4:cc:15:77:09:14:5a:ba:62:4c:a0:9c:c4:cd:
         f2:0c:db:6b:73:2e:7c:d1:da:63:6c:e7:73:ba:0f:08:fc:09:
         e7:cc:63:4f:55:b2:2f:b1:6a:85:fb:35:c1:50:5e:c7:01:e7:
         ba:1d:c4:5b
-----BEGIN CERTIFICATE-----
MIIEXTCCA0WgAwIBAgIDUAKvMA0GCSqGSIb3DQEBCwUAMIHGMQswCQYDVQQGEwJO
TDEWMBQGA1UECAwNTm9vcmQtSG9sbGFuZDEWMBQGA1UECgwNRGlsYWRlbGUgQi5W
LjEwMC4GA1UECwwnRGlsYWRlbGUgQi5WLiBXZWIgU2FmZXR5IExpY2Vuc2luZyBD
QSA1MTAwLgYDVQQDDCdEaWxhZGVsZSBCLlYuIFdlYiBTYWZldHkgTGljZW5zaW5n
IENBIDUxIzAhBgkqhkiG9w0BCQEWFHN1cHBvcnRAZGlsYWRlbGUuY29tMB4XDTE5
MDIwMjA1MzU1NFoXDTE5MDMwNTA1MzU1NFowgZ0xCzAJBgNVBAYTAk5MMRYwFAYD
VQQIDA1Ob29yZC1Ib2xsYW5kMRYwFAYDVQQKDA1EaWxhZGVsZSBCLlYuMQ4wDAYD
VQQLDAVTYWxlczEpMCcGA1UEAwwgTGljZW5zZSBLZXkgKDUtdHJpYWwtNTAwLTUw
MDY4OSkxIzAhBgkqhkiG9w0BCQEWFHN1cHBvcnRAZGlsYWRlbGUuY29tMIIBIjAN
BgkqhkiG9w0BAQEFAAOCAQ8AMIIBCgKCAQEAo4Pa2ip6PTIsuPq1PJLMapsx7ir6
iHYcyC9wrjMVgz058Gx+x380R2/Yz1RvWS7tiazvUPwqulu6HcDXTT7L1Iiy582Z
UPZgbgAWe4/KyxkogdjR9tohhbCLBtn8FN0/3kyEQgszwvntsYwc+/mVd2TNTRYK
mBgMfxBn1GtDBpZZPgLfRTMN6yQ//4RN5axJx1LQZTYNDeo+uikuIsPF/C5ojIwh
ukx8zRsvtHgo6wcENPRJhtnuINC+Fmi40s1mYg6gk0eni1uEFDbQkFaeZbMCpliR
JD3IbMLQjYi17yeOxI+KiZmUXPL3IiTcfVpVUVPfAXMnywVTX2NKouHi8wIDAQAB
o3sweTAJBgNVHRMEAjAAMCwGCWCGSAGG+EIBDQQfFh1PcGVuU1NMIEdlbmVyYXRl
ZCBDZXJ0aWZpY2F0ZTAdBgNVHQ4EFgQUJpLY5wlhInP9PIcyHWlcA5FNo3IwHwYD
VR0jBBgwFoAUy9zHoZDFpC5Ryy1e2oEgy/crG2YwDQYJKoZIhvcNAQELBQADggEB
ALRQanP37plACo57BLI6zYgnTSpHhBM9Mtz3f88Q8p4sWO5XrHIXQn9jddDY/Nf6
pfOE364Z/HQxu/6GjW0vr7ytsraS6wN4LbAwUkcxgLh/buO54grb1c6qCeF9ISAI
nc9Iis+9Im/PuuN/Re9+O5GGhrVUFX0n3JABmidz8VIShIp4sYrRF3UNmEwGbU+a
eGQCp6zPvWciNMXHdblAGhjFvn0i/kerLBmV4xvGsH43uZkLUCdbrN6vCvIZiBnq
XWUkzJVj2d5IhASkzBV3CRRaumJMoJzEzfIM22tzLnzR2mNs53O6Dwj8CefMY09V
si+xaoX7NcFQXscB57odxFs=
-----END CERTIFICATE-----
