Certificate:
    Data:
        Version: 3 (0x2)
        Serial Number: 5243493 (0x500265)
    Signature Algorithm: sha256WithRSAEncryption
        Issuer: C=NL, ST=Noord-Holland, O=Diladele B.V., OU=Diladele B.V. Web Safety Licensing CA 5, CN=Diladele B.V. Web Safety Licensing CA 5/emailAddress=support@diladele.com
        Validity
            Not Before: Dec 13 07:51:27 2018 GMT
            Not After : Jan 22 07:51:27 2019 GMT
        Subject: C=NL, ST=Noord-Holland, O=Diladele B.V., OU=Sales, CN=License Key (5-trial-500-500612)/emailAddress=support@diladele.com
        Subject Public Key Info:
            Public Key Algorithm: rsaEncryption
                Public-Key: (2048 bit)
                Modulus:
                    00:c8:69:ca:2d:63:34:7d:3a:a4:70:13:40:66:1c:
                    6b:ab:b3:8a:83:ce:0a:ae:69:a7:6d:bc:8c:5a:13:
                    e9:ee:7d:82:f6:f3:43:ae:d0:c9:4b:cc:ee:4f:92:
                    74:e0:52:93:05:31:83:da:e3:73:64:c2:61:4e:ee:
                    3d:b3:6b:63:cd:bb:7c:f5:d6:c8:6e:eb:aa:e3:9c:
                    6e:b2:32:fc:08:e3:63:06:06:cf:c2:90:d3:7c:b3:
                    5b:eb:fe:13:15:49:37:b7:39:ca:5f:d2:6f:ce:f8:
                    7c:cb:c5:27:b4:45:a6:81:e0:bd:c4:26:33:94:13:
                    ff:b3:2d:2a:a7:d4:ab:f0:ff:c8:c2:f9:b3:f9:d4:
                    f9:3f:cd:db:c7:07:e8:43:51:c1:ab:69:ad:70:ba:
                    12:19:5d:8a:22:a5:85:80:c3:c6:55:53:d8:45:59:
                    4a:09:cc:32:8a:c6:cf:bc:d6:2c:2a:a9:49:2a:9c:
                    99:c6:2f:b6:7a:18:a7:31:95:cb:94:f7:b4:cb:50:
                    a2:cf:73:a5:13:9c:9e:de:28:e0:bc:e0:a0:bf:92:
                    73:68:ac:d0:43:d3:b2:f7:10:5a:09:aa:e5:c5:20:
                    2c:5a:50:18:95:d0:38:b8:c0:5f:0a:80:b5:5d:26:
                    f5:7e:ec:ed:41:e3:27:c3:e5:91:ce:ad:d4:fb:08:
                    e9:89
                Exponent: 65537 (0x10001)
        X509v3 extensions:
            X509v3 Basic Constraints: 
                CA:FALSE
            Netscape Comment: 
                OpenSSL Generated Certificate
            X509v3 Subject Key Identifier: 
                0B:22:3D:42:1C:C6:29:7D:A9:83:16:3C:5C:E5:18:90:56:68:55:B5
            X509v3 Authority Key Identifier: 
                keyid:CB:DC:C7:A1:90:C5:A4:2E:51:CB:2D:5E:DA:81:20:CB:F7:2B:1B:66

    Signature Algorithm: sha256WithRSAEncryption
         21:8d:65:b7:4a:3b:d2:c6:06:b5:fb:f5:7c:98:bd:59:c1:d5:
         ff:4c:31:1e:9e:52:e4:ef:34:23:9e:24:2e:42:67:4e:88:a2:
         d8:75:bb:b2:09:66:e3:f9:3b:fc:c9:3d:3d:a6:16:20:6d:42:
         51:2b:00:fa:8f:df:d0:e5:fb:38:3e:78:8f:83:cd:4d:41:27:
         4f:7e:fc:e5:0e:14:8b:e7:a5:de:80:e6:d8:28:44:50:a6:bc:
         d2:f2:cd:cf:5f:fb:77:5d:17:cf:28:8c:c7:88:d3:8c:d7:d1:
         52:20:f3:60:2e:cb:e9:fd:6c:c4:f5:f3:18:a3:b1:3e:a4:45:
         1d:c3:5c:25:bc:58:57:ae:c2:29:34:36:25:5a:81:d8:ef:29:
         6e:38:f4:1c:8f:eb:56:ac:fe:b4:e1:69:1c:3c:ef:79:e5:ba:
         9b:d1:a1:07:9f:59:5d:e5:03:72:a2:88:6f:38:64:a5:b7:a1:
         0b:6c:58:78:c3:a7:67:a1:0f:1b:1d:78:7c:b8:5f:08:c3:15:
         be:ca:19:71:09:c0:f5:4f:8d:58:e7:28:fa:10:49:e8:e3:17:
         59:51:19:df:01:8f:b9:b1:2e:3c:e3:bc:cc:45:e4:79:ed:0b:
         a4:71:39:97:2e:2a:a1:af:f1:9b:62:82:b9:61:97:ab:2e:2d:
         0b:02:46:70
-----BEGIN CERTIFICATE-----
MIIEXTCCA0WgAwIBAgIDUAJlMA0GCSqGSIb3DQEBCwUAMIHGMQswCQYDVQQGEwJO
TDEWMBQGA1UECAwNTm9vcmQtSG9sbGFuZDEWMBQGA1UECgwNRGlsYWRlbGUgQi5W
LjEwMC4GA1UECwwnRGlsYWRlbGUgQi5WLiBXZWIgU2FmZXR5IExpY2Vuc2luZyBD
QSA1MTAwLgYDVQQDDCdEaWxhZGVsZSBCLlYuIFdlYiBTYWZldHkgTGljZW5zaW5n
IENBIDUxIzAhBgkqhkiG9w0BCQEWFHN1cHBvcnRAZGlsYWRlbGUuY29tMB4XDTE4
MTIxMzA3NTEyN1oXDTE5MDEyMjA3NTEyN1owgZ0xCzAJBgNVBAYTAk5MMRYwFAYD
VQQIDA1Ob29yZC1Ib2xsYW5kMRYwFAYDVQQKDA1EaWxhZGVsZSBCLlYuMQ4wDAYD
VQQLDAVTYWxlczEpMCcGA1UEAwwgTGljZW5zZSBLZXkgKDUtdHJpYWwtNTAwLTUw
MDYxMikxIzAhBgkqhkiG9w0BCQEWFHN1cHBvcnRAZGlsYWRlbGUuY29tMIIBIjAN
BgkqhkiG9w0BAQEFAAOCAQ8AMIIBCgKCAQEAyGnKLWM0fTqkcBNAZhxrq7OKg84K
rmmnbbyMWhPp7n2C9vNDrtDJS8zuT5J04FKTBTGD2uNzZMJhTu49s2tjzbt89dbI
buuq45xusjL8CONjBgbPwpDTfLNb6/4TFUk3tznKX9Jvzvh8y8UntEWmgeC9xCYz
lBP/sy0qp9Sr8P/Iwvmz+dT5P83bxwfoQ1HBq2mtcLoSGV2KIqWFgMPGVVPYRVlK
CcwyisbPvNYsKqlJKpyZxi+2ehinMZXLlPe0y1Ciz3OlE5ye3ijgvOCgv5JzaKzQ
Q9Oy9xBaCarlxSAsWlAYldA4uMBfCoC1XSb1fuztQeMnw+WRzq3U+wjpiQIDAQAB
o3sweTAJBgNVHRMEAjAAMCwGCWCGSAGG+EIBDQQfFh1PcGVuU1NMIEdlbmVyYXRl
ZCBDZXJ0aWZpY2F0ZTAdBgNVHQ4EFgQUCyI9QhzGKX2pgxY8XOUYkFZoVbUwHwYD
VR0jBBgwFoAUy9zHoZDFpC5Ryy1e2oEgy/crG2YwDQYJKoZIhvcNAQELBQADggEB
ACGNZbdKO9LGBrX79XyYvVnB1f9MMR6eUuTvNCOeJC5CZ06Ioth1u7IJZuP5O/zJ
PT2mFiBtQlErAPqP39Dl+zg+eI+DzU1BJ09+/OUOFIvnpd6A5tgoRFCmvNLyzc9f
+3ddF88ojMeI04zX0VIg82Auy+n9bMT18xijsT6kRR3DXCW8WFeuwik0NiVagdjv
KW449ByP61as/rThaRw873nlupvRoQefWV3lA3KiiG84ZKW3oQtsWHjDp2ehDxsd
eHy4XwjDFb7KGXEJwPVPjVjnKPoQSejjF1lRGd8Bj7mxLjzjvMxF5HntC6RxOZcu
KqGv8Ztigrlhl6suLQsCRnA=
-----END CERTIFICATE-----
